ccopy_reg
_reconstructor
p0
(cbrian.connections.constructionmatrix
SparseConstructionMatrix
p1
c__builtin__
object
p2
Ntp3
Rp4
(dp5
S'rows'
p6
cnumpy.core.multiarray
_reconstruct
p7
(cnumpy
ndarray
p8
(I0
tp9
S'b'
p10
tp11
Rp12
(I1
(I80
tp13
cnumpy
dtype
p14
(S'O8'
p15
I0
I1
tp16
Rp17
(I3
S'|'
p18
NNNI-1
I-1
I63
tp19
bI00
(lp20
(lp21
I0
aI2
aI10
aI15
aI28
aI29
aI48
aI71
aI83
aI86
aI87
aI100
aI104
aI105
aI111
aI124
aI145
aI147
aI150
aI159
aI160
aI161
aI163
aI171
aI178
aI191
aI203
aI212
aI214
aI217
aI223
aI230
aI233
aI235
aI245
aI250
aI255
aI256
aI262
aI264
aI268
aI271
aI279
aI281
aI282
aI291
aI293
aI296
aI304
aI324
aI330
aI332
aI349
aI388
aI389
aI395
aI398
aa(lp22
I13
aI19
aI20
aI21
aI32
aI34
aI40
aI54
aI55
aI67
aI70
aI82
aI92
aI103
aI106
aI108
aI111
aI126
aI133
aI137
aI140
aI145
aI153
aI161
aI182
aI183
aI186
aI196
aI197
aI206
aI207
aI212
aI218
aI220
aI230
aI241
aI250
aI259
aI263
aI268
aI269
aI272
aI276
aI277
aI300
aI304
aI325
aI329
aI330
aI333
aI345
aI357
aI360
aI365
aI368
aI387
aI392
aa(lp23
I1
aI2
aI4
aI13
aI15
aI18
aI25
aI28
aI29
aI49
aI64
aI66
aI67
aI68
aI69
aI83
aI85
aI97
aI101
aI105
aI115
aI117
aI121
aI126
aI161
aI163
aI170
aI180
aI181
aI183
aI184
aI206
aI218
aI225
aI231
aI237
aI238
aI243
aI245
aI252
aI253
aI254
aI276
aI282
aI290
aI300
aI315
aI325
aI329
aI336
aI341
aI350
aI353
aI358
aI362
aI373
aI376
aI379
aI385
aI393
aa(lp24
I0
aI15
aI20
aI32
aI41
aI79
aI86
aI92
aI99
aI108
aI111
aI125
aI135
aI136
aI139
aI142
aI143
aI150
aI151
aI156
aI157
aI164
aI168
aI170
aI175
aI176
aI178
aI179
aI182
aI186
aI190
aI194
aI206
aI217
aI230
aI233
aI236
aI240
aI246
aI252
aI258
aI264
aI265
aI268
aI272
aI281
aI283
aI285
aI287
aI292
aI293
aI295
aI299
aI310
aI311
aI313
aI328
aI330
aI338
aI342
aI352
aI357
aI359
aI377
aI389
aI397
aa(lp25
I0
aI5
aI10
aI30
aI33
aI34
aI38
aI40
aI49
aI60
aI69
aI75
aI79
aI82
aI84
aI91
aI95
aI104
aI109
aI122
aI129
aI130
aI131
aI133
aI137
aI141
aI150
aI157
aI161
aI162
aI178
aI181
aI189
aI194
aI207
aI211
aI221
aI231
aI239
aI256
aI281
aI310
aI312
aI313
aI332
aI336
aI339
aI357
aI363
aI382
aI389
aa(lp26
I2
aI14
aI17
aI23
aI24
aI25
aI36
aI44
aI45
aI71
aI82
aI84
aI85
aI86
aI93
aI96
aI100
aI108
aI124
aI127
aI155
aI163
aI169
aI174
aI185
aI187
aI192
aI198
aI200
aI201
aI207
aI208
aI220
aI235
aI245
aI247
aI249
aI250
aI261
aI262
aI273
aI275
aI282
aI292
aI307
aI327
aI328
aI332
aI339
aI351
aI359
aI373
aI382
aI383
aI385
aI389
aI396
aa(lp27
I12
aI20
aI21
aI23
aI36
aI38
aI40
aI44
aI48
aI61
aI71
aI86
aI94
aI100
aI125
aI131
aI132
aI147
aI150
aI151
aI154
aI155
aI165
aI170
aI175
aI177
aI182
aI191
aI200
aI201
aI206
aI221
aI222
aI229
aI250
aI253
aI260
aI288
aI294
aI296
aI310
aI314
aI336
aI346
aI347
aI349
aI352
aI355
aI356
aI362
aI373
aI376
aI382
aI384
aI387
aa(lp28
I6
aI12
aI14
aI21
aI28
aI29
aI37
aI43
aI51
aI54
aI59
aI61
aI62
aI67
aI71
aI73
aI75
aI84
aI91
aI93
aI99
aI100
aI113
aI121
aI126
aI140
aI143
aI147
aI150
aI157
aI158
aI163
aI177
aI180
aI187
aI188
aI190
aI193
aI201
aI204
aI217
aI218
aI220
aI225
aI226
aI228
aI235
aI244
aI251
aI257
aI258
aI272
aI273
aI296
aI297
aI298
aI303
aI309
aI310
aI321
aI330
aI337
aI339
aI348
aI366
aI394
aa(lp29
I4
aI8
aI16
aI31
aI44
aI52
aI109
aI111
aI113
aI133
aI140
aI142
aI144
aI145
aI152
aI155
aI156
aI161
aI167
aI177
aI180
aI189
aI207
aI209
aI221
aI226
aI233
aI242
aI245
aI254
aI263
aI275
aI280
aI286
aI292
aI295
aI301
aI304
aI305
aI307
aI311
aI318
aI324
aI327
aI338
aI357
aI374
aI391
aI397
aa(lp30
I0
aI1
aI12
aI27
aI31
aI47
aI60
aI64
aI65
aI72
aI93
aI102
aI107
aI111
aI112
aI120
aI128
aI132
aI135
aI138
aI161
aI162
aI174
aI191
aI199
aI200
aI203
aI210
aI220
aI221
aI222
aI235
aI248
aI260
aI261
aI266
aI267
aI270
aI276
aI281
aI283
aI294
aI300
aI312
aI316
aI320
aI337
aI340
aI341
aI345
aI353
aI361
aI363
aI369
aI381
aI389
aI391
aI393
aa(lp31
I14
aI16
aI26
aI29
aI30
aI33
aI35
aI37
aI44
aI51
aI68
aI74
aI75
aI84
aI95
aI108
aI111
aI121
aI123
aI139
aI144
aI148
aI160
aI162
aI170
aI207
aI228
aI230
aI233
aI234
aI236
aI247
aI256
aI259
aI266
aI269
aI273
aI274
aI275
aI290
aI301
aI303
aI327
aI339
aI349
aI350
aI352
aI362
aI364
aI369
aI371
aI377
aI383
aI387
aI395
aa(lp32
I0
aI5
aI9
aI16
aI39
aI40
aI41
aI46
aI55
aI63
aI70
aI72
aI75
aI76
aI87
aI90
aI101
aI108
aI109
aI124
aI128
aI129
aI138
aI139
aI140
aI150
aI152
aI153
aI177
aI184
aI195
aI204
aI207
aI211
aI225
aI229
aI231
aI232
aI241
aI247
aI248
aI251
aI253
aI265
aI269
aI276
aI294
aI305
aI318
aI320
aI323
aI326
aI330
aI332
aI338
aI341
aI356
aI379
aI380
aa(lp33
I6
aI8
aI12
aI24
aI27
aI37
aI47
aI59
aI61
aI69
aI72
aI73
aI75
aI78
aI89
aI96
aI101
aI104
aI134
aI141
aI148
aI150
aI152
aI155
aI159
aI163
aI164
aI166
aI167
aI174
aI203
aI209
aI218
aI219
aI229
aI231
aI232
aI235
aI245
aI251
aI255
aI257
aI270
aI273
aI291
aI294
aI303
aI304
aI305
aI307
aI308
aI310
aI312
aI313
aI325
aI328
aI331
aI338
aI356
aI357
aI359
aI365
aI368
aI371
aI374
aI379
aI380
aI391
aI392
aI393
aI398
aa(lp34
I19
aI21
aI25
aI26
aI28
aI29
aI33
aI37
aI40
aI59
aI62
aI63
aI64
aI72
aI85
aI89
aI93
aI113
aI114
aI122
aI125
aI130
aI133
aI137
aI143
aI144
aI154
aI156
aI157
aI161
aI167
aI182
aI187
aI190
aI192
aI199
aI209
aI227
aI228
aI240
aI242
aI247
aI248
aI257
aI260
aI274
aI280
aI284
aI287
aI297
aI302
aI304
aI305
aI312
aI314
aI331
aI335
aI345
aI354
aI361
aI376
aI382
aI389
aa(lp35
I6
aI7
aI11
aI15
aI19
aI27
aI31
aI32
aI37
aI60
aI62
aI77
aI79
aI87
aI106
aI107
aI113
aI117
aI118
aI119
aI123
aI133
aI134
aI141
aI142
aI144
aI157
aI165
aI169
aI170
aI198
aI203
aI207
aI216
aI220
aI228
aI236
aI239
aI241
aI242
aI247
aI250
aI262
aI265
aI266
aI267
aI275
aI285
aI288
aI289
aI297
aI304
aI306
aI307
aI309
aI316
aI323
aI326
aI339
aI346
aI359
aI365
aI373
aI386
aI395
aa(lp36
I9
aI30
aI32
aI34
aI35
aI39
aI44
aI48
aI51
aI53
aI62
aI64
aI73
aI76
aI84
aI92
aI97
aI101
aI120
aI123
aI125
aI126
aI133
aI146
aI148
aI157
aI159
aI165
aI167
aI173
aI180
aI183
aI184
aI196
aI204
aI215
aI217
aI219
aI226
aI232
aI242
aI243
aI253
aI254
aI265
aI267
aI279
aI280
aI298
aI300
aI302
aI303
aI306
aI307
aI316
aI336
aI339
aI353
aI370
aI388
aI394
aI399
aa(lp37
I0
aI4
aI15
aI17
aI18
aI29
aI43
aI44
aI46
aI55
aI56
aI61
aI64
aI70
aI79
aI96
aI104
aI107
aI113
aI114
aI124
aI128
aI148
aI154
aI155
aI160
aI161
aI173
aI181
aI182
aI184
aI188
aI199
aI203
aI206
aI217
aI225
aI227
aI230
aI236
aI242
aI243
aI246
aI254
aI259
aI261
aI275
aI283
aI290
aI294
aI302
aI304
aI307
aI311
aI315
aI326
aI332
aI338
aI339
aI341
aI342
aI343
aI346
aI354
aI357
aI364
aI376
aI398
aa(lp38
I11
aI12
aI17
aI22
aI44
aI46
aI56
aI60
aI81
aI82
aI87
aI89
aI90
aI91
aI92
aI117
aI118
aI119
aI126
aI135
aI149
aI150
aI154
aI157
aI160
aI161
aI166
aI169
aI181
aI200
aI201
aI202
aI212
aI216
aI230
aI232
aI243
aI246
aI266
aI271
aI273
aI274
aI278
aI303
aI307
aI311
aI314
aI318
aI319
aI320
aI321
aI325
aI330
aI331
aI336
aI337
aI339
aI349
aI350
aI352
aI355
aI364
aI367
aI371
aI378
aI383
aI389
aa(lp39
I7
aI20
aI24
aI43
aI44
aI53
aI56
aI62
aI64
aI65
aI68
aI77
aI98
aI107
aI111
aI123
aI125
aI133
aI150
aI175
aI177
aI189
aI192
aI204
aI211
aI221
aI234
aI243
aI247
aI252
aI261
aI264
aI272
aI273
aI275
aI289
aI296
aI297
aI301
aI306
aI315
aI322
aI336
aI347
aI352
aI355
aI362
aI376
aI394
aI397
aI398
aa(lp40
I0
aI3
aI7
aI9
aI10
aI13
aI18
aI23
aI26
aI31
aI37
aI38
aI46
aI53
aI56
aI59
aI64
aI65
aI72
aI74
aI77
aI80
aI92
aI95
aI112
aI125
aI144
aI148
aI155
aI159
aI166
aI169
aI177
aI191
aI198
aI204
aI210
aI212
aI213
aI220
aI226
aI236
aI243
aI247
aI251
aI252
aI255
aI262
aI266
aI273
aI281
aI282
aI283
aI287
aI288
aI291
aI292
aI300
aI307
aI313
aI323
aI324
aI341
aI351
aI357
aI362
aI369
aI375
aI381
aI382
aI386
aI395
aa(lp41
I0
aI6
aI11
aI17
aI42
aI46
aI47
aI52
aI53
aI54
aI57
aI64
aI65
aI66
aI100
aI101
aI103
aI104
aI108
aI109
aI121
aI130
aI143
aI172
aI175
aI178
aI180
aI185
aI198
aI204
aI210
aI219
aI226
aI232
aI235
aI238
aI240
aI250
aI258
aI259
aI267
aI270
aI277
aI281
aI293
aI299
aI300
aI306
aI307
aI310
aI323
aI342
aI344
aI345
aI364
aI366
aI370
aI371
aI396
aI399
aa(lp42
I18
aI19
aI21
aI31
aI32
aI38
aI39
aI40
aI41
aI101
aI105
aI110
aI120
aI122
aI123
aI124
aI125
aI127
aI131
aI133
aI137
aI138
aI152
aI157
aI172
aI174
aI177
aI179
aI182
aI184
aI192
aI193
aI204
aI206
aI214
aI218
aI228
aI233
aI234
aI235
aI246
aI248
aI259
aI262
aI275
aI277
aI294
aI301
aI305
aI307
aI308
aI309
aI316
aI317
aI320
aI321
aI323
aI326
aI327
aI344
aI345
aI346
aI353
aI355
aI381
aI382
aI385
aI393
aI394
aa(lp43
I3
aI8
aI12
aI16
aI18
aI21
aI29
aI30
aI31
aI41
aI46
aI48
aI64
aI74
aI77
aI88
aI94
aI109
aI116
aI123
aI125
aI126
aI130
aI131
aI134
aI137
aI139
aI145
aI168
aI171
aI172
aI177
aI187
aI192
aI194
aI196
aI201
aI213
aI226
aI227
aI229
aI247
aI253
aI257
aI270
aI280
aI298
aI318
aI321
aI344
aI347
aI351
aI352
aI359
aI365
aI366
aI368
aI370
aI381
aI395
aI397
aa(lp44
I4
aI7
aI14
aI17
aI20
aI36
aI46
aI51
aI63
aI65
aI67
aI79
aI81
aI110
aI117
aI121
aI133
aI136
aI164
aI174
aI176
aI178
aI182
aI184
aI192
aI193
aI194
aI210
aI211
aI230
aI240
aI247
aI262
aI272
aI274
aI286
aI288
aI292
aI300
aI302
aI308
aI317
aI319
aI337
aI338
aI345
aI349
aI360
aI365
aI368
aI376
aI380
aI382
aI388
aI395
aa(lp45
I4
aI6
aI12
aI25
aI45
aI46
aI60
aI63
aI64
aI67
aI74
aI79
aI80
aI85
aI100
aI134
aI154
aI172
aI179
aI180
aI188
aI190
aI206
aI215
aI216
aI245
aI247
aI250
aI262
aI264
aI265
aI273
aI284
aI287
aI290
aI294
aI299
aI300
aI313
aI316
aI322
aI324
aI333
aI339
aI348
aI353
aI355
aI357
aI372
aI373
aI377
aa(lp46
I5
aI21
aI29
aI54
aI55
aI60
aI62
aI63
aI67
aI75
aI77
aI82
aI97
aI99
aI102
aI145
aI147
aI157
aI168
aI173
aI179
aI183
aI184
aI186
aI189
aI204
aI207
aI209
aI212
aI230
aI251
aI262
aI268
aI269
aI272
aI277
aI289
aI291
aI292
aI293
aI295
aI302
aI308
aI312
aI325
aI327
aI328
aI336
aI346
aI347
aI351
aI363
aI367
aI368
aI375
aI382
aI386
aI387
aI397
aI398
aa(lp47
I11
aI13
aI27
aI34
aI37
aI42
aI50
aI55
aI58
aI61
aI63
aI65
aI70
aI71
aI82
aI84
aI95
aI99
aI101
aI106
aI108
aI111
aI119
aI131
aI140
aI151
aI152
aI168
aI176
aI187
aI188
aI195
aI196
aI198
aI206
aI210
aI218
aI228
aI246
aI259
aI270
aI286
aI307
aI308
aI320
aI322
aI324
aI330
aI337
aI343
aI351
aI352
aI357
aI369
aI371
aI381
aI384
aI385
aI386
aI391
aa(lp48
I3
aI7
aI13
aI22
aI26
aI36
aI37
aI48
aI56
aI58
aI60
aI68
aI91
aI95
aI99
aI106
aI112
aI117
aI137
aI138
aI139
aI151
aI152
aI156
aI158
aI160
aI176
aI177
aI192
aI195
aI202
aI208
aI209
aI212
aI216
aI217
aI222
aI233
aI242
aI256
aI259
aI264
aI276
aI285
aI292
aI295
aI297
aI301
aI304
aI305
aI312
aI315
aI325
aI341
aI342
aI345
aI346
aI372
aI373
aI383
aa(lp49
I1
aI16
aI18
aI27
aI29
aI41
aI45
aI47
aI49
aI54
aI56
aI63
aI78
aI82
aI87
aI106
aI115
aI126
aI127
aI156
aI193
aI196
aI198
aI199
aI220
aI221
aI227
aI228
aI229
aI232
aI233
aI237
aI240
aI242
aI252
aI255
aI260
aI262
aI263
aI265
aI269
aI273
aI285
aI295
aI306
aI308
aI319
aI322
aI333
aI334
aI341
aI352
aI375
aI382
aI387
aI389
aI397
aa(lp50
I0
aI4
aI6
aI8
aI13
aI14
aI21
aI25
aI49
aI50
aI55
aI65
aI86
aI88
aI101
aI102
aI104
aI107
aI108
aI114
aI116
aI120
aI129
aI138
aI157
aI159
aI161
aI163
aI164
aI175
aI182
aI188
aI193
aI197
aI213
aI221
aI232
aI237
aI238
aI242
aI261
aI265
aI270
aI275
aI283
aI290
aI296
aI303
aI306
aI314
aI332
aI334
aI337
aI338
aI342
aI349
aI351
aI355
aI358
aI361
aI371
aI372
aI375
aI380
aI383
aI389
aI391
aI396
aI398
aa(lp51
I7
aI8
aI15
aI23
aI31
aI40
aI41
aI63
aI91
aI99
aI106
aI113
aI123
aI127
aI133
aI152
aI160
aI193
aI201
aI202
aI211
aI214
aI215
aI220
aI222
aI226
aI233
aI240
aI248
aI259
aI262
aI264
aI279
aI286
aI291
aI305
aI307
aI322
aI326
aI328
aI333
aI334
aI340
aI376
aI382
aI386
aI388
aI399
aa(lp52
I2
aI7
aI13
aI49
aI53
aI59
aI66
aI72
aI82
aI87
aI96
aI102
aI104
aI105
aI106
aI118
aI123
aI126
aI140
aI167
aI178
aI179
aI183
aI184
aI188
aI201
aI205
aI211
aI213
aI214
aI221
aI225
aI227
aI229
aI232
aI234
aI235
aI242
aI257
aI263
aI276
aI280
aI284
aI297
aI311
aI312
aI313
aI315
aI324
aI347
aI350
aI358
aI365
aI378
aa(lp53
I2
aI12
aI13
aI25
aI29
aI37
aI39
aI40
aI43
aI58
aI81
aI91
aI102
aI104
aI108
aI111
aI126
aI130
aI133
aI134
aI136
aI138
aI142
aI155
aI163
aI164
aI166
aI168
aI169
aI171
aI175
aI179
aI197
aI203
aI205
aI208
aI219
aI223
aI230
aI232
aI236
aI238
aI241
aI244
aI255
aI259
aI276
aI280
aI300
aI339
aI347
aI348
aI350
aI379
aI380
aI381
aa(lp54
I3
aI6
aI25
aI33
aI34
aI37
aI43
aI49
aI50
aI51
aI56
aI57
aI66
aI102
aI120
aI125
aI127
aI128
aI131
aI145
aI164
aI181
aI188
aI194
aI199
aI206
aI220
aI223
aI243
aI245
aI247
aI253
aI270
aI277
aI289
aI301
aI304
aI310
aI312
aI315
aI316
aI320
aI330
aI336
aI339
aI367
aI370
aI376
aI379
aI396
aa(lp55
I11
aI15
aI24
aI31
aI41
aI42
aI45
aI50
aI51
aI52
aI60
aI68
aI71
aI77
aI79
aI80
aI82
aI93
aI97
aI98
aI114
aI115
aI122
aI125
aI128
aI131
aI133
aI136
aI139
aI142
aI148
aI149
aI156
aI165
aI174
aI176
aI178
aI184
aI202
aI209
aI229
aI239
aI248
aI250
aI257
aI261
aI262
aI268
aI270
aI280
aI285
aI295
aI301
aI318
aI320
aI324
aI332
aI333
aI335
aI340
aI341
aI344
aI354
aI358
aI360
aI371
aI372
aI389
aa(lp56
I17
aI18
aI41
aI46
aI55
aI57
aI65
aI71
aI74
aI79
aI82
aI90
aI98
aI104
aI112
aI114
aI115
aI116
aI125
aI133
aI135
aI146
aI150
aI153
aI157
aI162
aI169
aI174
aI186
aI194
aI195
aI197
aI203
aI210
aI214
aI221
aI223
aI236
aI250
aI256
aI273
aI281
aI283
aI289
aI291
aI293
aI320
aI322
aI329
aI330
aI343
aI344
aI345
aI360
aI366
aI370
aI375
aI376
aI377
aI385
aI391
aI392
aa(lp57
I0
aI7
aI20
aI28
aI35
aI51
aI54
aI58
aI66
aI74
aI77
aI88
aI90
aI95
aI99
aI102
aI103
aI104
aI106
aI107
aI122
aI131
aI133
aI139
aI169
aI177
aI178
aI182
aI206
aI209
aI215
aI217
aI222
aI233
aI235
aI239
aI243
aI244
aI253
aI257
aI267
aI271
aI280
aI282
aI287
aI301
aI305
aI320
aI339
aI340
aI342
aI345
aI360
aI361
aI362
aI382
aI395
aa(lp58
I2
aI10
aI12
aI14
aI18
aI23
aI24
aI26
aI41
aI47
aI48
aI59
aI64
aI67
aI70
aI75
aI77
aI78
aI86
aI103
aI110
aI121
aI135
aI148
aI151
aI153
aI157
aI161
aI166
aI183
aI187
aI190
aI211
aI229
aI233
aI251
aI252
aI258
aI261
aI267
aI284
aI286
aI294
aI295
aI297
aI301
aI303
aI315
aI326
aI338
aI375
aI388
aI390
aI397
aI398
aa(lp59
I4
aI13
aI20
aI26
aI28
aI29
aI32
aI44
aI46
aI51
aI63
aI67
aI68
aI72
aI82
aI89
aI91
aI100
aI102
aI109
aI113
aI114
aI119
aI121
aI130
aI135
aI138
aI141
aI153
aI160
aI174
aI176
aI184
aI186
aI207
aI216
aI221
aI239
aI247
aI255
aI271
aI280
aI283
aI285
aI294
aI310
aI314
aI316
aI317
aI319
aI321
aI334
aI363
aI377
aI383
aI391
aI392
aI397
aI398
aa(lp60
I6
aI10
aI15
aI26
aI28
aI32
aI34
aI37
aI44
aI50
aI52
aI56
aI57
aI58
aI65
aI71
aI74
aI76
aI78
aI81
aI86
aI89
aI95
aI105
aI115
aI119
aI129
aI142
aI147
aI149
aI151
aI157
aI161
aI165
aI171
aI179
aI189
aI191
aI203
aI210
aI211
aI217
aI218
aI223
aI228
aI243
aI248
aI251
aI253
aI254
aI256
aI257
aI268
aI271
aI280
aI281
aI285
aI312
aI324
aI328
aI335
aI336
aI341
aI344
aI346
aI347
aI348
aI363
aI364
aI366
aI370
aI374
aI387
aI391
aI397
aa(lp61
I0
aI9
aI15
aI18
aI21
aI72
aI90
aI102
aI103
aI110
aI113
aI121
aI126
aI131
aI136
aI141
aI147
aI148
aI160
aI170
aI175
aI177
aI187
aI189
aI210
aI217
aI228
aI229
aI234
aI248
aI264
aI265
aI269
aI275
aI278
aI281
aI288
aI299
aI308
aI315
aI323
aI339
aI349
aI350
aI354
aI358
aI377
aI380
aI388
aI393
aI394
aI395
aa(lp62
I1
aI2
aI7
aI11
aI20
aI22
aI24
aI25
aI34
aI46
aI48
aI61
aI63
aI66
aI68
aI76
aI84
aI95
aI96
aI105
aI109
aI110
aI111
aI116
aI117
aI121
aI125
aI129
aI131
aI151
aI153
aI157
aI162
aI169
aI175
aI180
aI188
aI192
aI193
aI198
aI210
aI218
aI228
aI230
aI231
aI240
aI241
aI243
aI249
aI250
aI251
aI252
aI253
aI264
aI266
aI269
aI274
aI276
aI279
aI290
aI291
aI305
aI312
aI318
aI319
aI321
aI322
aI323
aI328
aI330
aI333
aI336
aI348
aI357
aI361
aI363
aI370
aI376
aI392
aa(lp63
I5
aI6
aI11
aI13
aI20
aI22
aI28
aI29
aI34
aI35
aI40
aI42
aI55
aI70
aI92
aI93
aI95
aI99
aI104
aI105
aI107
aI108
aI110
aI112
aI115
aI138
aI161
aI162
aI177
aI180
aI182
aI190
aI195
aI204
aI216
aI223
aI225
aI227
aI228
aI229
aI232
aI243
aI259
aI267
aI273
aI276
aI293
aI294
aI307
aI310
aI320
aI322
aI325
aI328
aI331
aI346
aI348
aI353
aI361
aI364
aI367
aI371
aI382
aI390
aa(lp64
I6
aI11
aI19
aI28
aI31
aI34
aI36
aI40
aI44
aI47
aI50
aI51
aI52
aI56
aI62
aI73
aI74
aI80
aI85
aI88
aI100
aI101
aI106
aI112
aI115
aI123
aI125
aI126
aI128
aI137
aI141
aI144
aI150
aI160
aI163
aI171
aI176
aI179
aI182
aI184
aI185
aI186
aI197
aI201
aI203
aI206
aI208
aI211
aI217
aI232
aI233
aI244
aI252
aI264
aI300
aI318
aI323
aI330
aI333
aI335
aI337
aI345
aI346
aI347
aI352
aI368
aI378
aI382
aI387
aI392
aI394
aa(lp65
I5
aI7
aI13
aI19
aI22
aI39
aI51
aI53
aI54
aI64
aI77
aI81
aI84
aI94
aI108
aI112
aI113
aI115
aI118
aI125
aI136
aI138
aI147
aI151
aI154
aI155
aI157
aI167
aI178
aI189
aI200
aI202
aI209
aI214
aI224
aI233
aI238
aI246
aI247
aI248
aI250
aI251
aI253
aI256
aI276
aI279
aI296
aI298
aI304
aI312
aI313
aI316
aI319
aI327
aI333
aI341
aI353
aI354
aI357
aI359
aI366
aI374
aI375
aI382
aI383
aI386
aI389
aI394
aa(lp66
I10
aI12
aI13
aI14
aI29
aI30
aI36
aI43
aI58
aI71
aI80
aI96
aI100
aI108
aI110
aI132
aI146
aI149
aI152
aI156
aI158
aI160
aI173
aI179
aI191
aI198
aI216
aI219
aI224
aI233
aI244
aI246
aI250
aI259
aI265
aI267
aI280
aI283
aI295
aI296
aI302
aI304
aI313
aI326
aI347
aI348
aI350
aI359
aI360
aI361
aI367
aI372
aI376
aI382
aI394
aI395
aI396
aa(lp67
I0
aI7
aI9
aI12
aI14
aI18
aI24
aI31
aI33
aI40
aI43
aI46
aI48
aI53
aI59
aI60
aI64
aI72
aI89
aI90
aI92
aI104
aI111
aI113
aI115
aI119
aI135
aI137
aI144
aI147
aI153
aI154
aI168
aI180
aI182
aI203
aI211
aI223
aI230
aI240
aI242
aI243
aI253
aI257
aI262
aI286
aI295
aI300
aI301
aI307
aI310
aI314
aI320
aI322
aI324
aI325
aI338
aI345
aI351
aI352
aI355
aI364
aI370
aI372
aI374
aa(lp68
I8
aI11
aI16
aI21
aI24
aI29
aI31
aI38
aI41
aI45
aI47
aI48
aI51
aI54
aI56
aI59
aI67
aI73
aI75
aI90
aI95
aI98
aI100
aI115
aI122
aI123
aI133
aI142
aI164
aI170
aI176
aI178
aI185
aI190
aI192
aI195
aI203
aI208
aI222
aI229
aI232
aI234
aI249
aI250
aI251
aI254
aI264
aI269
aI276
aI277
aI285
aI287
aI289
aI290
aI301
aI309
aI312
aI317
aI318
aI326
aI329
aI331
aI336
aI341
aI349
aI356
aI365
aI371
aI375
aI382
aI391
aI392
aI397
aa(lp69
I2
aI8
aI16
aI21
aI22
aI24
aI34
aI56
aI64
aI69
aI76
aI77
aI87
aI95
aI99
aI105
aI124
aI128
aI132
aI133
aI140
aI141
aI152
aI170
aI187
aI188
aI195
aI197
aI223
aI237
aI248
aI263
aI265
aI266
aI270
aI272
aI283
aI286
aI292
aI295
aI298
aI301
aI302
aI309
aI313
aI318
aI324
aI327
aI328
aI332
aI333
aI349
aI351
aI353
aI362
aI381
aI386
aI394
aa(lp70
I26
aI56
aI61
aI64
aI79
aI84
aI87
aI96
aI102
aI108
aI109
aI110
aI118
aI123
aI137
aI144
aI145
aI146
aI153
aI156
aI157
aI159
aI168
aI188
aI211
aI222
aI242
aI243
aI244
aI248
aI259
aI266
aI276
aI293
aI297
aI298
aI302
aI323
aI328
aI329
aI332
aI356
aI358
aI359
aI364
aI373
aI379
aI385
aI387
aI390
aI399
aa(lp71
I5
aI8
aI11
aI23
aI26
aI29
aI31
aI36
aI47
aI48
aI52
aI55
aI56
aI61
aI78
aI80
aI90
aI94
aI106
aI109
aI118
aI122
aI123
aI132
aI140
aI142
aI150
aI153
aI161
aI166
aI168
aI173
aI200
aI205
aI221
aI224
aI234
aI239
aI240
aI241
aI246
aI255
aI256
aI259
aI262
aI263
aI268
aI269
aI270
aI277
aI287
aI293
aI301
aI307
aI309
aI310
aI322
aI326
aI338
aI354
aI356
aI364
aI374
aI386
aI394
aa(lp72
I7
aI8
aI12
aI16
aI27
aI37
aI59
aI68
aI75
aI99
aI110
aI112
aI130
aI134
aI157
aI166
aI170
aI175
aI180
aI184
aI200
aI205
aI206
aI224
aI228
aI236
aI243
aI250
aI251
aI252
aI268
aI279
aI286
aI299
aI302
aI309
aI311
aI312
aI323
aI324
aI334
aI341
aI342
aI343
aI344
aI346
aI356
aI357
aI362
aI363
aI365
aI367
aI383
aI384
aI387
aI389
aI397
aa(lp73
I3
aI7
aI9
aI33
aI54
aI60
aI70
aI75
aI82
aI86
aI93
aI96
aI100
aI102
aI107
aI121
aI131
aI134
aI143
aI146
aI152
aI156
aI170
aI171
aI182
aI188
aI189
aI207
aI215
aI218
aI219
aI222
aI227
aI233
aI235
aI236
aI250
aI275
aI278
aI281
aI308
aI311
aI322
aI330
aI332
aI354
aI363
aI380
aI383
aI384
aI385
aI386
aI387
aI395
aa(lp74
I12
aI16
aI27
aI38
aI44
aI51
aI126
aI130
aI134
aI141
aI146
aI155
aI168
aI183
aI193
aI200
aI204
aI206
aI207
aI210
aI219
aI222
aI227
aI229
aI231
aI234
aI244
aI249
aI257
aI271
aI281
aI288
aI310
aI318
aI337
aI338
aI346
aI347
aI350
aI357
aI376
aI397
aa(lp75
I1
aI2
aI4
aI7
aI13
aI30
aI31
aI39
aI45
aI47
aI74
aI82
aI94
aI101
aI114
aI124
aI129
aI131
aI152
aI156
aI157
aI161
aI164
aI165
aI166
aI180
aI181
aI192
aI195
aI197
aI198
aI204
aI205
aI210
aI216
aI220
aI227
aI233
aI234
aI243
aI246
aI260
aI262
aI263
aI270
aI274
aI292
aI293
aI307
aI325
aI330
aI340
aI344
aI347
aI349
aI350
aI352
aI358
aI361
aI363
aI364
aI373
aI377
aI378
aI397
aI399
aa(lp76
I0
aI6
aI13
aI20
aI22
aI23
aI24
aI52
aI56
aI61
aI64
aI67
aI69
aI72
aI74
aI85
aI88
aI98
aI100
aI109
aI115
aI122
aI134
aI141
aI142
aI145
aI149
aI161
aI168
aI169
aI185
aI190
aI195
aI204
aI206
aI210
aI213
aI216
aI221
aI223
aI228
aI232
aI235
aI236
aI245
aI265
aI274
aI292
aI297
aI301
aI306
aI318
aI323
aI324
aI326
aI333
aI337
aI351
aI354
aI366
aI379
aI381
aI382
aI384
aI385
aI391
aa(lp77
I2
aI4
aI7
aI22
aI36
aI48
aI50
aI53
aI58
aI59
aI76
aI95
aI101
aI106
aI123
aI125
aI128
aI142
aI143
aI153
aI165
aI167
aI169
aI173
aI178
aI180
aI224
aI234
aI238
aI240
aI248
aI253
aI256
aI266
aI273
aI275
aI288
aI310
aI318
aI321
aI323
aI325
aI337
aI344
aI348
aI349
aI350
aI353
aI368
aI369
aI371
aI376
aI379
aI389
aI393
aI396
aa(lp78
I0
aI2
aI10
aI13
aI18
aI20
aI25
aI27
aI43
aI46
aI49
aI53
aI58
aI69
aI102
aI109
aI142
aI144
aI152
aI154
aI158
aI163
aI164
aI168
aI169
aI170
aI175
aI187
aI190
aI191
aI208
aI219
aI226
aI237
aI249
aI252
aI279
aI282
aI285
aI300
aI304
aI307
aI321
aI339
aI342
aI344
aI347
aI355
aI359
aI399
aa(lp79
I4
aI15
aI24
aI25
aI29
aI30
aI33
aI46
aI56
aI60
aI61
aI65
aI72
aI75
aI80
aI82
aI91
aI103
aI104
aI110
aI116
aI123
aI127
aI144
aI149
aI167
aI185
aI187
aI192
aI197
aI200
aI210
aI214
aI223
aI230
aI232
aI236
aI237
aI240
aI246
aI247
aI256
aI264
aI267
aI269
aI276
aI278
aI285
aI292
aI295
aI306
aI308
aI309
aI320
aI354
aI385
aI386
aI392
aa(lp80
I11
aI29
aI31
aI40
aI48
aI51
aI59
aI70
aI73
aI78
aI90
aI92
aI95
aI105
aI107
aI109
aI110
aI114
aI115
aI118
aI121
aI122
aI135
aI137
aI149
aI151
aI153
aI154
aI156
aI175
aI181
aI188
aI190
aI211
aI218
aI239
aI271
aI286
aI297
aI303
aI307
aI316
aI319
aI321
aI326
aI336
aI337
aI340
aI354
aI362
aI372
aI382
aI384
aI390
aI397
aa(lp81
I22
aI28
aI46
aI51
aI53
aI59
aI62
aI66
aI90
aI91
aI108
aI113
aI119
aI122
aI124
aI152
aI165
aI167
aI175
aI183
aI204
aI207
aI212
aI223
aI230
aI240
aI243
aI246
aI251
aI252
aI280
aI284
aI285
aI286
aI292
aI301
aI311
aI321
aI329
aI330
aI335
aI354
aI360
aI367
aI377
aI394
aI398
aa(lp82
I4
aI19
aI33
aI42
aI45
aI49
aI58
aI71
aI82
aI87
aI104
aI118
aI121
aI148
aI151
aI163
aI165
aI169
aI172
aI174
aI186
aI191
aI194
aI202
aI208
aI225
aI231
aI233
aI242
aI243
aI244
aI251
aI253
aI258
aI262
aI275
aI282
aI289
aI300
aI301
aI323
aI335
aI342
aI369
aI377
aI378
aI379
aI383
aI395
aI396
aa(lp83
I1
aI2
aI11
aI17
aI22
aI24
aI34
aI41
aI42
aI43
aI46
aI53
aI54
aI75
aI80
aI94
aI95
aI106
aI109
aI115
aI119
aI121
aI126
aI134
aI136
aI139
aI143
aI144
aI151
aI161
aI164
aI172
aI181
aI206
aI209
aI210
aI214
aI221
aI224
aI226
aI235
aI255
aI264
aI266
aI268
aI272
aI293
aI295
aI303
aI306
aI312
aI313
aI319
aI321
aI325
aI332
aI335
aI340
aI343
aI366
aI369
aI392
aI396
aa(lp84
I2
aI5
aI13
aI14
aI23
aI34
aI35
aI36
aI37
aI52
aI56
aI58
aI66
aI71
aI82
aI83
aI85
aI87
aI92
aI98
aI105
aI111
aI112
aI115
aI116
aI127
aI130
aI132
aI134
aI135
aI137
aI144
aI160
aI171
aI177
aI183
aI186
aI189
aI190
aI193
aI196
aI200
aI214
aI224
aI227
aI233
aI234
aI236
aI246
aI247
aI253
aI255
aI258
aI271
aI280
aI291
aI298
aI302
aI303
aI321
aI324
aI326
aI327
aI337
aI338
aI346
aI348
aI360
aI363
aI371
aI397
aa(lp85
I7
aI9
aI18
aI21
aI24
aI42
aI44
aI45
aI49
aI54
aI73
aI80
aI82
aI85
aI86
aI110
aI113
aI115
aI117
aI119
aI120
aI133
aI161
aI164
aI166
aI177
aI181
aI182
aI189
aI206
aI207
aI209
aI214
aI215
aI216
aI217
aI226
aI232
aI236
aI240
aI244
aI246
aI267
aI286
aI293
aI305
aI310
aI315
aI323
aI324
aI330
aI333
aI343
aI359
aI360
aI366
aI376
aI385
aa(lp86
I1
aI14
aI15
aI23
aI26
aI27
aI34
aI39
aI48
aI56
aI64
aI71
aI87
aI88
aI94
aI96
aI119
aI125
aI130
aI146
aI157
aI184
aI197
aI217
aI220
aI227
aI240
aI242
aI253
aI258
aI262
aI265
aI286
aI290
aI301
aI303
aI304
aI305
aI307
aI313
aI325
aI326
aI328
aI329
aI337
aI349
aI350
aI354
aI355
aI361
aI365
aI378
aI391
aI395
aa(lp87
I1
aI5
aI6
aI13
aI17
aI32
aI41
aI47
aI54
aI61
aI71
aI72
aI88
aI95
aI97
aI98
aI110
aI112
aI125
aI138
aI145
aI165
aI174
aI175
aI190
aI194
aI197
aI200
aI204
aI209
aI210
aI217
aI225
aI226
aI231
aI236
aI238
aI255
aI256
aI257
aI261
aI269
aI293
aI305
aI319
aI333
aI334
aI343
aI351
aI354
aI362
aI366
aI379
aI388
aI391
aa(lp88
I1
aI5
aI14
aI18
aI20
aI23
aI31
aI54
aI69
aI73
aI75
aI81
aI83
aI88
aI96
aI97
aI98
aI111
aI116
aI123
aI135
aI140
aI143
aI147
aI148
aI164
aI175
aI186
aI187
aI197
aI198
aI207
aI224
aI231
aI233
aI237
aI239
aI240
aI241
aI244
aI245
aI251
aI259
aI266
aI287
aI291
aI301
aI316
aI322
aI323
aI326
aI328
aI336
aI344
aI345
aI361
aI363
aI368
aI375
aI382
aI383
aI384
aI392
aI398
aa(lp89
I11
aI18
aI23
aI25
aI32
aI38
aI40
aI42
aI43
aI46
aI48
aI63
aI70
aI73
aI75
aI78
aI90
aI93
aI96
aI97
aI102
aI105
aI118
aI130
aI132
aI140
aI162
aI163
aI176
aI183
aI188
aI189
aI190
aI196
aI201
aI206
aI207
aI216
aI218
aI224
aI230
aI239
aI240
aI244
aI245
aI248
aI249
aI251
aI256
aI258
aI259
aI263
aI264
aI275
aI279
aI287
aI289
aI291
aI292
aI308
aI311
aI316
aI325
aI327
aI338
aI340
aI343
aI345
aI349
aI353
aI358
aI360
aI361
aI371
aI385
aI391
aI395
aa(lp90
I1
aI11
aI29
aI42
aI48
aI51
aI52
aI55
aI57
aI62
aI63
aI67
aI68
aI69
aI79
aI96
aI102
aI107
aI117
aI120
aI128
aI129
aI130
aI133
aI137
aI142
aI149
aI167
aI168
aI174
aI187
aI190
aI201
aI212
aI227
aI230
aI234
aI235
aI239
aI242
aI263
aI268
aI281
aI289
aI295
aI297
aI301
aI304
aI310
aI312
aI321
aI322
aI327
aI340
aI348
aI358
aI360
aI363
aI378
aI379
aI384
aI392
aI398
aa(lp91
I0
aI11
aI31
aI33
aI39
aI41
aI42
aI49
aI66
aI70
aI98
aI104
aI105
aI107
aI114
aI119
aI125
aI129
aI130
aI131
aI133
aI134
aI147
aI151
aI157
aI159
aI163
aI167
aI171
aI184
aI188
aI192
aI198
aI200
aI211
aI214
aI225
aI233
aI235
aI240
aI248
aI264
aI273
aI282
aI286
aI291
aI305
aI317
aI325
aI333
aI341
aI347
aI354
aI360
aI365
aI377
aI381
aa(lp92
I7
aI16
aI18
aI21
aI40
aI48
aI49
aI56
aI63
aI65
aI67
aI68
aI77
aI86
aI113
aI117
aI124
aI127
aI131
aI132
aI137
aI138
aI141
aI147
aI151
aI171
aI190
aI192
aI198
aI202
aI207
aI211
aI221
aI234
aI236
aI239
aI252
aI254
aI268
aI303
aI308
aI321
aI332
aI339
aI349
aI350
aI366
aI374
aI394
aI398
aa(lp93
I0
aI2
aI7
aI9
aI17
aI25
aI31
aI48
aI55
aI67
aI70
aI79
aI81
aI93
aI97
aI101
aI102
aI108
aI110
aI119
aI123
aI130
aI131
aI132
aI137
aI145
aI153
aI155
aI158
aI168
aI172
aI173
aI180
aI181
aI184
aI209
aI215
aI217
aI218
aI222
aI235
aI239
aI245
aI254
aI275
aI280
aI282
aI288
aI293
aI298
aI302
aI304
aI312
aI313
aI314
aI323
aI329
aI333
aI338
aI343
aI344
aI356
aI365
aI368
aI390
aa(lp94
I4
aI5
aI7
aI15
aI21
aI25
aI35
aI36
aI42
aI43
aI44
aI46
aI55
aI56
aI64
aI75
aI76
aI77
aI85
aI94
aI100
aI103
aI104
aI106
aI112
aI113
aI115
aI116
aI117
aI126
aI127
aI130
aI133
aI135
aI136
aI139
aI148
aI150
aI157
aI163
aI175
aI188
aI191
aI198
aI232
aI234
aI238
aI253
aI255
aI266
aI276
aI291
aI314
aI325
aI328
aI342
aI346
aI349
aI366
aI370
aI372
aI379
aI380
aI382
aI384
aI390
aI394
aa(lp95
I11
aI32
aI43
aI44
aI47
aI48
aI51
aI58
aI60
aI63
aI73
aI76
aI79
aI87
aI96
aI104
aI115
aI121
aI122
aI127
aI133
aI137
aI139
aI145
aI156
aI157
aI163
aI166
aI178
aI179
aI184
aI208
aI209
aI217
aI226
aI242
aI245
aI253
aI255
aI258
aI280
aI281
aI286
aI292
aI297
aI299
aI300
aI302
aI305
aI306
aI311
aI316
aI337
aI349
aI353
aI362
aI373
aI374
aI387
aI392
aI394
aI398
aa(lp96
I9
aI12
aI15
aI17
aI21
aI26
aI30
aI34
aI35
aI49
aI51
aI53
aI57
aI58
aI62
aI69
aI73
aI80
aI85
aI92
aI97
aI103
aI106
aI109
aI110
aI111
aI113
aI116
aI120
aI122
aI129
aI140
aI146
aI155
aI156
aI160
aI165
aI182
aI183
aI184
aI192
aI202
aI224
aI230
aI238
aI242
aI250
aI251
aI252
aI262
aI267
aI277
aI287
aI291
aI294
aI302
aI303
aI305
aI308
aI319
aI327
aI329
aI340
aI348
aI353
aI365
aI373
aI391
aa(lp97
I1
aI11
aI12
aI15
aI17
aI20
aI24
aI27
aI29
aI32
aI33
aI48
aI75
aI77
aI79
aI81
aI98
aI100
aI101
aI105
aI108
aI111
aI115
aI134
aI137
aI149
aI150
aI154
aI159
aI170
aI176
aI206
aI214
aI218
aI220
aI226
aI230
aI232
aI240
aI247
aI248
aI256
aI263
aI268
aI278
aI284
aI285
aI299
aI314
aI315
aI327
aI332
aI333
aI336
aI342
aI347
aI357
aI361
aI380
aI382
aI386
aI389
aI390
aI393
aa(lp98
I0
aI28
aI32
aI36
aI41
aI42
aI47
aI49
aI67
aI72
aI86
aI87
aI88
aI106
aI112
aI119
aI132
aI135
aI136
aI141
aI149
aI163
aI193
aI197
aI203
aI221
aI249
aI250
aI251
aI277
aI281
aI286
aI297
aI298
aI303
aI305
aI309
aI314
aI319
aI323
aI333
aI334
aI337
aI346
aI350
aI372
aI382
aI389
aI391
aa(lp99
I20
aI22
aI27
aI32
aI34
aI39
aI43
aI47
aI48
aI56
aI57
aI58
aI60
aI68
aI71
aI72
aI84
aI91
aI93
aI94
aI97
aI105
aI110
aI111
aI125
aI129
aI135
aI140
aI159
aI163
aI172
aI188
aI190
aI193
aI194
aI201
aI202
aI203
aI207
aI217
aI222
aI226
aI227
aI228
aI251
aI258
aI266
aI267
aI281
aI290
aI295
aI297
aI325
aI326
aI331
aI333
aI343
aI348
aI350
aI355
aI361
aI363
aI364
aI388
aI393
aI399
aa(lp100
I12
aI26
aI32
aI44
aI51
aI53
aI60
aI69
aI73
aI75
aI76
aI86
aI94
aI113
aI121
aI132
aI141
aI152
aI154
aI158
aI164
aI167
aI171
aI172
aI173
aI174
aI175
aI180
aI191
aI194
aI197
aI198
aI201
aI202
aI205
aI206
aI207
aI221
aI226
aI238
aI253
aI270
aI290
aI309
aI311
aI316
aI319
aI323
aI328
aI335
aI362
aI368
aI369
aI370
aI371
aI373
aI377
aI381
aI387
aatp101
bsS'format'
p102
S'Spa'
p103
sS'dtype'
p104
g14
(S'f8'
p105
I0
I1
tp106
Rp107
(I3
S'<'
p108
NNNI-1
I-1
I0
tp109
bsS'_shape'
p110
(I80
I400
tp111
sS'maxprint'
p112
I50
sS'data'
p113
g7
(g8
(I0
tp114
g10
tp115
Rp116
(I1
(I80
tp117
g17
I00
(lp118
(lp119
F-0.001
aF-0.001
aF-0.001
aF-0.001
aF-0.001
aF-0.001
aF-0.001
aF-0.001
aF-0.001
aF-0.001
aF-0.001
aF-0.001
aF-0.001
aF-0.001
aF-0.001
aF-0.001
aF-0.001
aF-0.001
aF-0.001
aF-0.001
aF-0.001
aF-0.001
aF-0.001
aF-0.001
aF-0.001
aF-0.001
aF-0.001
aF-0.001
aF-0.001
aF-0.001
aF-0.001
aF-0.001
aF-0.001
aF-0.001
aF-0.001
aF-0.001
aF-0.001
aF-0.001
aF-0.001
aF-0.001
aF-0.001
aF-0.001
aF-0.001
aF-0.001
aF-0.001
aF-0.001
aF-0.001
aF-0.001
aF-0.001
aF-0.001
aF-0.001
aF-0.001
aF-0.001
aF-0.001
aF-0.001
aF-0.001
aF-0.001
aa(lp120
F-0.001
aF-0.001
aF-0.001
aF-0.001
aF-0.001
aF-0.001
aF-0.001
aF-0.001
aF-0.001
aF-0.001
aF-0.001
aF-0.001
aF-0.001
aF-0.001
aF-0.001
aF-0.001
aF-0.001
aF-0.001
aF-0.001
aF-0.001
aF-0.001
aF-0.001
aF-0.001
aF-0.001
aF-0.001
aF-0.001
aF-0.001
aF-0.001
aF-0.001
aF-0.001
aF-0.001
aF-0.001
aF-0.001
aF-0.001
aF-0.001
aF-0.001
aF-0.001
aF-0.001
aF-0.001
aF-0.001
aF-0.001
aF-0.001
aF-0.001
aF-0.001
aF-0.001
aF-0.001
aF-0.001
aF-0.001
aF-0.001
aF-0.001
aF-0.001
aF-0.001
aF-0.001
aF-0.001
aF-0.001
aF-0.001
aF-0.001
aa(lp121
F-0.001
aF-0.001
aF-0.001
aF-0.001
aF-0.001
aF-0.001
aF-0.001
aF-0.001
aF-0.001
aF-0.001
aF-0.001
aF-0.001
aF-0.001
aF-0.001
aF-0.001
aF-0.001
aF-0.001
aF-0.001
aF-0.001
aF-0.001
aF-0.001
aF-0.001
aF-0.001
aF-0.001
aF-0.001
aF-0.001
aF-0.001
aF-0.001
aF-0.001
aF-0.001
aF-0.001
aF-0.001
aF-0.001
aF-0.001
aF-0.001
aF-0.001
aF-0.001
aF-0.001
aF-0.001
aF-0.001
aF-0.001
aF-0.001
aF-0.001
aF-0.001
aF-0.001
aF-0.001
aF-0.001
aF-0.001
aF-0.001
aF-0.001
aF-0.001
aF-0.001
aF-0.001
aF-0.001
aF-0.001
aF-0.001
aF-0.001
aF-0.001
aF-0.001
aF-0.001
aa(lp122
F-0.001
aF-0.001
aF-0.001
aF-0.001
aF-0.001
aF-0.001
aF-0.001
aF-0.001
aF-0.001
aF-0.001
aF-0.001
aF-0.001
aF-0.001
aF-0.001
aF-0.001
aF-0.001
aF-0.001
aF-0.001
aF-0.001
aF-0.001
aF-0.001
aF-0.001
aF-0.001
aF-0.001
aF-0.001
aF-0.001
aF-0.001
aF-0.001
aF-0.001
aF-0.001
aF-0.001
aF-0.001
aF-0.001
aF-0.001
aF-0.001
aF-0.001
aF-0.001
aF-0.001
aF-0.001
aF-0.001
aF-0.001
aF-0.001
aF-0.001
aF-0.001
aF-0.001
aF-0.001
aF-0.001
aF-0.001
aF-0.001
aF-0.001
aF-0.001
aF-0.001
aF-0.001
aF-0.001
aF-0.001
aF-0.001
aF-0.001
aF-0.001
aF-0.001
aF-0.001
aF-0.001
aF-0.001
aF-0.001
aF-0.001
aF-0.001
aF-0.001
aa(lp123
F-0.001
aF-0.001
aF-0.001
aF-0.001
aF-0.001
aF-0.001
aF-0.001
aF-0.001
aF-0.001
aF-0.001
aF-0.001
aF-0.001
aF-0.001
aF-0.001
aF-0.001
aF-0.001
aF-0.001
aF-0.001
aF-0.001
aF-0.001
aF-0.001
aF-0.001
aF-0.001
aF-0.001
aF-0.001
aF-0.001
aF-0.001
aF-0.001
aF-0.001
aF-0.001
aF-0.001
aF-0.001
aF-0.001
aF-0.001
aF-0.001
aF-0.001
aF-0.001
aF-0.001
aF-0.001
aF-0.001
aF-0.001
aF-0.001
aF-0.001
aF-0.001
aF-0.001
aF-0.001
aF-0.001
aF-0.001
aF-0.001
aF-0.001
aF-0.001
aa(lp124
F-0.001
aF-0.001
aF-0.001
aF-0.001
aF-0.001
aF-0.001
aF-0.001
aF-0.001
aF-0.001
aF-0.001
aF-0.001
aF-0.001
aF-0.001
aF-0.001
aF-0.001
aF-0.001
aF-0.001
aF-0.001
aF-0.001
aF-0.001
aF-0.001
aF-0.001
aF-0.001
aF-0.001
aF-0.001
aF-0.001
aF-0.001
aF-0.001
aF-0.001
aF-0.001
aF-0.001
aF-0.001
aF-0.001
aF-0.001
aF-0.001
aF-0.001
aF-0.001
aF-0.001
aF-0.001
aF-0.001
aF-0.001
aF-0.001
aF-0.001
aF-0.001
aF-0.001
aF-0.001
aF-0.001
aF-0.001
aF-0.001
aF-0.001
aF-0.001
aF-0.001
aF-0.001
aF-0.001
aF-0.001
aF-0.001
aF-0.001
aa(lp125
F-0.001
aF-0.001
aF-0.001
aF-0.001
aF-0.001
aF-0.001
aF-0.001
aF-0.001
aF-0.001
aF-0.001
aF-0.001
aF-0.001
aF-0.001
aF-0.001
aF-0.001
aF-0.001
aF-0.001
aF-0.001
aF-0.001
aF-0.001
aF-0.001
aF-0.001
aF-0.001
aF-0.001
aF-0.001
aF-0.001
aF-0.001
aF-0.001
aF-0.001
aF-0.001
aF-0.001
aF-0.001
aF-0.001
aF-0.001
aF-0.001
aF-0.001
aF-0.001
aF-0.001
aF-0.001
aF-0.001
aF-0.001
aF-0.001
aF-0.001
aF-0.001
aF-0.001
aF-0.001
aF-0.001
aF-0.001
aF-0.001
aF-0.001
aF-0.001
aF-0.001
aF-0.001
aF-0.001
aF-0.001
aa(lp126
F-0.001
aF-0.001
aF-0.001
aF-0.001
aF-0.001
aF-0.001
aF-0.001
aF-0.001
aF-0.001
aF-0.001
aF-0.001
aF-0.001
aF-0.001
aF-0.001
aF-0.001
aF-0.001
aF-0.001
aF-0.001
aF-0.001
aF-0.001
aF-0.001
aF-0.001
aF-0.001
aF-0.001
aF-0.001
aF-0.001
aF-0.001
aF-0.001
aF-0.001
aF-0.001
aF-0.001
aF-0.001
aF-0.001
aF-0.001
aF-0.001
aF-0.001
aF-0.001
aF-0.001
aF-0.001
aF-0.001
aF-0.001
aF-0.001
aF-0.001
aF-0.001
aF-0.001
aF-0.001
aF-0.001
aF-0.001
aF-0.001
aF-0.001
aF-0.001
aF-0.001
aF-0.001
aF-0.001
aF-0.001
aF-0.001
aF-0.001
aF-0.001
aF-0.001
aF-0.001
aF-0.001
aF-0.001
aF-0.001
aF-0.001
aF-0.001
aF-0.001
aa(lp127
F-0.001
aF-0.001
aF-0.001
aF-0.001
aF-0.001
aF-0.001
aF-0.001
aF-0.001
aF-0.001
aF-0.001
aF-0.001
aF-0.001
aF-0.001
aF-0.001
aF-0.001
aF-0.001
aF-0.001
aF-0.001
aF-0.001
aF-0.001
aF-0.001
aF-0.001
aF-0.001
aF-0.001
aF-0.001
aF-0.001
aF-0.001
aF-0.001
aF-0.001
aF-0.001
aF-0.001
aF-0.001
aF-0.001
aF-0.001
aF-0.001
aF-0.001
aF-0.001
aF-0.001
aF-0.001
aF-0.001
aF-0.001
aF-0.001
aF-0.001
aF-0.001
aF-0.001
aF-0.001
aF-0.001
aF-0.001
aF-0.001
aa(lp128
F-0.001
aF-0.001
aF-0.001
aF-0.001
aF-0.001
aF-0.001
aF-0.001
aF-0.001
aF-0.001
aF-0.001
aF-0.001
aF-0.001
aF-0.001
aF-0.001
aF-0.001
aF-0.001
aF-0.001
aF-0.001
aF-0.001
aF-0.001
aF-0.001
aF-0.001
aF-0.001
aF-0.001
aF-0.001
aF-0.001
aF-0.001
aF-0.001
aF-0.001
aF-0.001
aF-0.001
aF-0.001
aF-0.001
aF-0.001
aF-0.001
aF-0.001
aF-0.001
aF-0.001
aF-0.001
aF-0.001
aF-0.001
aF-0.001
aF-0.001
aF-0.001
aF-0.001
aF-0.001
aF-0.001
aF-0.001
aF-0.001
aF-0.001
aF-0.001
aF-0.001
aF-0.001
aF-0.001
aF-0.001
aF-0.001
aF-0.001
aF-0.001
aa(lp129
F-0.001
aF-0.001
aF-0.001
aF-0.001
aF-0.001
aF-0.001
aF-0.001
aF-0.001
aF-0.001
aF-0.001
aF-0.001
aF-0.001
aF-0.001
aF-0.001
aF-0.001
aF-0.001
aF-0.001
aF-0.001
aF-0.001
aF-0.001
aF-0.001
aF-0.001
aF-0.001
aF-0.001
aF-0.001
aF-0.001
aF-0.001
aF-0.001
aF-0.001
aF-0.001
aF-0.001
aF-0.001
aF-0.001
aF-0.001
aF-0.001
aF-0.001
aF-0.001
aF-0.001
aF-0.001
aF-0.001
aF-0.001
aF-0.001
aF-0.001
aF-0.001
aF-0.001
aF-0.001
aF-0.001
aF-0.001
aF-0.001
aF-0.001
aF-0.001
aF-0.001
aF-0.001
aF-0.001
aF-0.001
aa(lp130
F-0.001
aF-0.001
aF-0.001
aF-0.001
aF-0.001
aF-0.001
aF-0.001
aF-0.001
aF-0.001
aF-0.001
aF-0.001
aF-0.001
aF-0.001
aF-0.001
aF-0.001
aF-0.001
aF-0.001
aF-0.001
aF-0.001
aF-0.001
aF-0.001
aF-0.001
aF-0.001
aF-0.001
aF-0.001
aF-0.001
aF-0.001
aF-0.001
aF-0.001
aF-0.001
aF-0.001
aF-0.001
aF-0.001
aF-0.001
aF-0.001
aF-0.001
aF-0.001
aF-0.001
aF-0.001
aF-0.001
aF-0.001
aF-0.001
aF-0.001
aF-0.001
aF-0.001
aF-0.001
aF-0.001
aF-0.001
aF-0.001
aF-0.001
aF-0.001
aF-0.001
aF-0.001
aF-0.001
aF-0.001
aF-0.001
aF-0.001
aF-0.001
aF-0.001
aa(lp131
F-0.001
aF-0.001
aF-0.001
aF-0.001
aF-0.001
aF-0.001
aF-0.001
aF-0.001
aF-0.001
aF-0.001
aF-0.001
aF-0.001
aF-0.001
aF-0.001
aF-0.001
aF-0.001
aF-0.001
aF-0.001
aF-0.001
aF-0.001
aF-0.001
aF-0.001
aF-0.001
aF-0.001
aF-0.001
aF-0.001
aF-0.001
aF-0.001
aF-0.001
aF-0.001
aF-0.001
aF-0.001
aF-0.001
aF-0.001
aF-0.001
aF-0.001
aF-0.001
aF-0.001
aF-0.001
aF-0.001
aF-0.001
aF-0.001
aF-0.001
aF-0.001
aF-0.001
aF-0.001
aF-0.001
aF-0.001
aF-0.001
aF-0.001
aF-0.001
aF-0.001
aF-0.001
aF-0.001
aF-0.001
aF-0.001
aF-0.001
aF-0.001
aF-0.001
aF-0.001
aF-0.001
aF-0.001
aF-0.001
aF-0.001
aF-0.001
aF-0.001
aF-0.001
aF-0.001
aF-0.001
aF-0.001
aF-0.001
aa(lp132
F-0.001
aF-0.001
aF-0.001
aF-0.001
aF-0.001
aF-0.001
aF-0.001
aF-0.001
aF-0.001
aF-0.001
aF-0.001
aF-0.001
aF-0.001
aF-0.001
aF-0.001
aF-0.001
aF-0.001
aF-0.001
aF-0.001
aF-0.001
aF-0.001
aF-0.001
aF-0.001
aF-0.001
aF-0.001
aF-0.001
aF-0.001
aF-0.001
aF-0.001
aF-0.001
aF-0.001
aF-0.001
aF-0.001
aF-0.001
aF-0.001
aF-0.001
aF-0.001
aF-0.001
aF-0.001
aF-0.001
aF-0.001
aF-0.001
aF-0.001
aF-0.001
aF-0.001
aF-0.001
aF-0.001
aF-0.001
aF-0.001
aF-0.001
aF-0.001
aF-0.001
aF-0.001
aF-0.001
aF-0.001
aF-0.001
aF-0.001
aF-0.001
aF-0.001
aF-0.001
aF-0.001
aF-0.001
aF-0.001
aa(lp133
F-0.001
aF-0.001
aF-0.001
aF-0.001
aF-0.001
aF-0.001
aF-0.001
aF-0.001
aF-0.001
aF-0.001
aF-0.001
aF-0.001
aF-0.001
aF-0.001
aF-0.001
aF-0.001
aF-0.001
aF-0.001
aF-0.001
aF-0.001
aF-0.001
aF-0.001
aF-0.001
aF-0.001
aF-0.001
aF-0.001
aF-0.001
aF-0.001
aF-0.001
aF-0.001
aF-0.001
aF-0.001
aF-0.001
aF-0.001
aF-0.001
aF-0.001
aF-0.001
aF-0.001
aF-0.001
aF-0.001
aF-0.001
aF-0.001
aF-0.001
aF-0.001
aF-0.001
aF-0.001
aF-0.001
aF-0.001
aF-0.001
aF-0.001
aF-0.001
aF-0.001
aF-0.001
aF-0.001
aF-0.001
aF-0.001
aF-0.001
aF-0.001
aF-0.001
aF-0.001
aF-0.001
aF-0.001
aF-0.001
aF-0.001
aF-0.001
aa(lp134
F-0.001
aF-0.001
aF-0.001
aF-0.001
aF-0.001
aF-0.001
aF-0.001
aF-0.001
aF-0.001
aF-0.001
aF-0.001
aF-0.001
aF-0.001
aF-0.001
aF-0.001
aF-0.001
aF-0.001
aF-0.001
aF-0.001
aF-0.001
aF-0.001
aF-0.001
aF-0.001
aF-0.001
aF-0.001
aF-0.001
aF-0.001
aF-0.001
aF-0.001
aF-0.001
aF-0.001
aF-0.001
aF-0.001
aF-0.001
aF-0.001
aF-0.001
aF-0.001
aF-0.001
aF-0.001
aF-0.001
aF-0.001
aF-0.001
aF-0.001
aF-0.001
aF-0.001
aF-0.001
aF-0.001
aF-0.001
aF-0.001
aF-0.001
aF-0.001
aF-0.001
aF-0.001
aF-0.001
aF-0.001
aF-0.001
aF-0.001
aF-0.001
aF-0.001
aF-0.001
aF-0.001
aF-0.001
aa(lp135
F-0.001
aF-0.001
aF-0.001
aF-0.001
aF-0.001
aF-0.001
aF-0.001
aF-0.001
aF-0.001
aF-0.001
aF-0.001
aF-0.001
aF-0.001
aF-0.001
aF-0.001
aF-0.001
aF-0.001
aF-0.001
aF-0.001
aF-0.001
aF-0.001
aF-0.001
aF-0.001
aF-0.001
aF-0.001
aF-0.001
aF-0.001
aF-0.001
aF-0.001
aF-0.001
aF-0.001
aF-0.001
aF-0.001
aF-0.001
aF-0.001
aF-0.001
aF-0.001
aF-0.001
aF-0.001
aF-0.001
aF-0.001
aF-0.001
aF-0.001
aF-0.001
aF-0.001
aF-0.001
aF-0.001
aF-0.001
aF-0.001
aF-0.001
aF-0.001
aF-0.001
aF-0.001
aF-0.001
aF-0.001
aF-0.001
aF-0.001
aF-0.001
aF-0.001
aF-0.001
aF-0.001
aF-0.001
aF-0.001
aF-0.001
aF-0.001
aF-0.001
aF-0.001
aF-0.001
aa(lp136
F-0.001
aF-0.001
aF-0.001
aF-0.001
aF-0.001
aF-0.001
aF-0.001
aF-0.001
aF-0.001
aF-0.001
aF-0.001
aF-0.001
aF-0.001
aF-0.001
aF-0.001
aF-0.001
aF-0.001
aF-0.001
aF-0.001
aF-0.001
aF-0.001
aF-0.001
aF-0.001
aF-0.001
aF-0.001
aF-0.001
aF-0.001
aF-0.001
aF-0.001
aF-0.001
aF-0.001
aF-0.001
aF-0.001
aF-0.001
aF-0.001
aF-0.001
aF-0.001
aF-0.001
aF-0.001
aF-0.001
aF-0.001
aF-0.001
aF-0.001
aF-0.001
aF-0.001
aF-0.001
aF-0.001
aF-0.001
aF-0.001
aF-0.001
aF-0.001
aF-0.001
aF-0.001
aF-0.001
aF-0.001
aF-0.001
aF-0.001
aF-0.001
aF-0.001
aF-0.001
aF-0.001
aF-0.001
aF-0.001
aF-0.001
aF-0.001
aF-0.001
aF-0.001
aa(lp137
F-0.001
aF-0.001
aF-0.001
aF-0.001
aF-0.001
aF-0.001
aF-0.001
aF-0.001
aF-0.001
aF-0.001
aF-0.001
aF-0.001
aF-0.001
aF-0.001
aF-0.001
aF-0.001
aF-0.001
aF-0.001
aF-0.001
aF-0.001
aF-0.001
aF-0.001
aF-0.001
aF-0.001
aF-0.001
aF-0.001
aF-0.001
aF-0.001
aF-0.001
aF-0.001
aF-0.001
aF-0.001
aF-0.001
aF-0.001
aF-0.001
aF-0.001
aF-0.001
aF-0.001
aF-0.001
aF-0.001
aF-0.001
aF-0.001
aF-0.001
aF-0.001
aF-0.001
aF-0.001
aF-0.001
aF-0.001
aF-0.001
aF-0.001
aF-0.001
aa(lp138
F-0.001
aF-0.001
aF-0.001
aF-0.001
aF-0.001
aF-0.001
aF-0.001
aF-0.001
aF-0.001
aF-0.001
aF-0.001
aF-0.001
aF-0.001
aF-0.001
aF-0.001
aF-0.001
aF-0.001
aF-0.001
aF-0.001
aF-0.001
aF-0.001
aF-0.001
aF-0.001
aF-0.001
aF-0.001
aF-0.001
aF-0.001
aF-0.001
aF-0.001
aF-0.001
aF-0.001
aF-0.001
aF-0.001
aF-0.001
aF-0.001
aF-0.001
aF-0.001
aF-0.001
aF-0.001
aF-0.001
aF-0.001
aF-0.001
aF-0.001
aF-0.001
aF-0.001
aF-0.001
aF-0.001
aF-0.001
aF-0.001
aF-0.001
aF-0.001
aF-0.001
aF-0.001
aF-0.001
aF-0.001
aF-0.001
aF-0.001
aF-0.001
aF-0.001
aF-0.001
aF-0.001
aF-0.001
aF-0.001
aF-0.001
aF-0.001
aF-0.001
aF-0.001
aF-0.001
aF-0.001
aF-0.001
aF-0.001
aF-0.001
aa(lp139
F-0.001
aF-0.001
aF-0.001
aF-0.001
aF-0.001
aF-0.001
aF-0.001
aF-0.001
aF-0.001
aF-0.001
aF-0.001
aF-0.001
aF-0.001
aF-0.001
aF-0.001
aF-0.001
aF-0.001
aF-0.001
aF-0.001
aF-0.001
aF-0.001
aF-0.001
aF-0.001
aF-0.001
aF-0.001
aF-0.001
aF-0.001
aF-0.001
aF-0.001
aF-0.001
aF-0.001
aF-0.001
aF-0.001
aF-0.001
aF-0.001
aF-0.001
aF-0.001
aF-0.001
aF-0.001
aF-0.001
aF-0.001
aF-0.001
aF-0.001
aF-0.001
aF-0.001
aF-0.001
aF-0.001
aF-0.001
aF-0.001
aF-0.001
aF-0.001
aF-0.001
aF-0.001
aF-0.001
aF-0.001
aF-0.001
aF-0.001
aF-0.001
aF-0.001
aF-0.001
aa(lp140
F-0.001
aF-0.001
aF-0.001
aF-0.001
aF-0.001
aF-0.001
aF-0.001
aF-0.001
aF-0.001
aF-0.001
aF-0.001
aF-0.001
aF-0.001
aF-0.001
aF-0.001
aF-0.001
aF-0.001
aF-0.001
aF-0.001
aF-0.001
aF-0.001
aF-0.001
aF-0.001
aF-0.001
aF-0.001
aF-0.001
aF-0.001
aF-0.001
aF-0.001
aF-0.001
aF-0.001
aF-0.001
aF-0.001
aF-0.001
aF-0.001
aF-0.001
aF-0.001
aF-0.001
aF-0.001
aF-0.001
aF-0.001
aF-0.001
aF-0.001
aF-0.001
aF-0.001
aF-0.001
aF-0.001
aF-0.001
aF-0.001
aF-0.001
aF-0.001
aF-0.001
aF-0.001
aF-0.001
aF-0.001
aF-0.001
aF-0.001
aF-0.001
aF-0.001
aF-0.001
aF-0.001
aF-0.001
aF-0.001
aF-0.001
aF-0.001
aF-0.001
aF-0.001
aF-0.001
aF-0.001
aa(lp141
F-0.001
aF-0.001
aF-0.001
aF-0.001
aF-0.001
aF-0.001
aF-0.001
aF-0.001
aF-0.001
aF-0.001
aF-0.001
aF-0.001
aF-0.001
aF-0.001
aF-0.001
aF-0.001
aF-0.001
aF-0.001
aF-0.001
aF-0.001
aF-0.001
aF-0.001
aF-0.001
aF-0.001
aF-0.001
aF-0.001
aF-0.001
aF-0.001
aF-0.001
aF-0.001
aF-0.001
aF-0.001
aF-0.001
aF-0.001
aF-0.001
aF-0.001
aF-0.001
aF-0.001
aF-0.001
aF-0.001
aF-0.001
aF-0.001
aF-0.001
aF-0.001
aF-0.001
aF-0.001
aF-0.001
aF-0.001
aF-0.001
aF-0.001
aF-0.001
aF-0.001
aF-0.001
aF-0.001
aF-0.001
aF-0.001
aF-0.001
aF-0.001
aF-0.001
aF-0.001
aF-0.001
aa(lp142
F-0.001
aF-0.001
aF-0.001
aF-0.001
aF-0.001
aF-0.001
aF-0.001
aF-0.001
aF-0.001
aF-0.001
aF-0.001
aF-0.001
aF-0.001
aF-0.001
aF-0.001
aF-0.001
aF-0.001
aF-0.001
aF-0.001
aF-0.001
aF-0.001
aF-0.001
aF-0.001
aF-0.001
aF-0.001
aF-0.001
aF-0.001
aF-0.001
aF-0.001
aF-0.001
aF-0.001
aF-0.001
aF-0.001
aF-0.001
aF-0.001
aF-0.001
aF-0.001
aF-0.001
aF-0.001
aF-0.001
aF-0.001
aF-0.001
aF-0.001
aF-0.001
aF-0.001
aF-0.001
aF-0.001
aF-0.001
aF-0.001
aF-0.001
aF-0.001
aF-0.001
aF-0.001
aF-0.001
aF-0.001
aa(lp143
F-0.001
aF-0.001
aF-0.001
aF-0.001
aF-0.001
aF-0.001
aF-0.001
aF-0.001
aF-0.001
aF-0.001
aF-0.001
aF-0.001
aF-0.001
aF-0.001
aF-0.001
aF-0.001
aF-0.001
aF-0.001
aF-0.001
aF-0.001
aF-0.001
aF-0.001
aF-0.001
aF-0.001
aF-0.001
aF-0.001
aF-0.001
aF-0.001
aF-0.001
aF-0.001
aF-0.001
aF-0.001
aF-0.001
aF-0.001
aF-0.001
aF-0.001
aF-0.001
aF-0.001
aF-0.001
aF-0.001
aF-0.001
aF-0.001
aF-0.001
aF-0.001
aF-0.001
aF-0.001
aF-0.001
aF-0.001
aF-0.001
aF-0.001
aF-0.001
aa(lp144
F-0.001
aF-0.001
aF-0.001
aF-0.001
aF-0.001
aF-0.001
aF-0.001
aF-0.001
aF-0.001
aF-0.001
aF-0.001
aF-0.001
aF-0.001
aF-0.001
aF-0.001
aF-0.001
aF-0.001
aF-0.001
aF-0.001
aF-0.001
aF-0.001
aF-0.001
aF-0.001
aF-0.001
aF-0.001
aF-0.001
aF-0.001
aF-0.001
aF-0.001
aF-0.001
aF-0.001
aF-0.001
aF-0.001
aF-0.001
aF-0.001
aF-0.001
aF-0.001
aF-0.001
aF-0.001
aF-0.001
aF-0.001
aF-0.001
aF-0.001
aF-0.001
aF-0.001
aF-0.001
aF-0.001
aF-0.001
aF-0.001
aF-0.001
aF-0.001
aF-0.001
aF-0.001
aF-0.001
aF-0.001
aF-0.001
aF-0.001
aF-0.001
aF-0.001
aF-0.001
aa(lp145
F-0.001
aF-0.001
aF-0.001
aF-0.001
aF-0.001
aF-0.001
aF-0.001
aF-0.001
aF-0.001
aF-0.001
aF-0.001
aF-0.001
aF-0.001
aF-0.001
aF-0.001
aF-0.001
aF-0.001
aF-0.001
aF-0.001
aF-0.001
aF-0.001
aF-0.001
aF-0.001
aF-0.001
aF-0.001
aF-0.001
aF-0.001
aF-0.001
aF-0.001
aF-0.001
aF-0.001
aF-0.001
aF-0.001
aF-0.001
aF-0.001
aF-0.001
aF-0.001
aF-0.001
aF-0.001
aF-0.001
aF-0.001
aF-0.001
aF-0.001
aF-0.001
aF-0.001
aF-0.001
aF-0.001
aF-0.001
aF-0.001
aF-0.001
aF-0.001
aF-0.001
aF-0.001
aF-0.001
aF-0.001
aF-0.001
aF-0.001
aF-0.001
aF-0.001
aF-0.001
aa(lp146
F-0.001
aF-0.001
aF-0.001
aF-0.001
aF-0.001
aF-0.001
aF-0.001
aF-0.001
aF-0.001
aF-0.001
aF-0.001
aF-0.001
aF-0.001
aF-0.001
aF-0.001
aF-0.001
aF-0.001
aF-0.001
aF-0.001
aF-0.001
aF-0.001
aF-0.001
aF-0.001
aF-0.001
aF-0.001
aF-0.001
aF-0.001
aF-0.001
aF-0.001
aF-0.001
aF-0.001
aF-0.001
aF-0.001
aF-0.001
aF-0.001
aF-0.001
aF-0.001
aF-0.001
aF-0.001
aF-0.001
aF-0.001
aF-0.001
aF-0.001
aF-0.001
aF-0.001
aF-0.001
aF-0.001
aF-0.001
aF-0.001
aF-0.001
aF-0.001
aF-0.001
aF-0.001
aF-0.001
aF-0.001
aF-0.001
aF-0.001
aF-0.001
aF-0.001
aF-0.001
aa(lp147
F-0.001
aF-0.001
aF-0.001
aF-0.001
aF-0.001
aF-0.001
aF-0.001
aF-0.001
aF-0.001
aF-0.001
aF-0.001
aF-0.001
aF-0.001
aF-0.001
aF-0.001
aF-0.001
aF-0.001
aF-0.001
aF-0.001
aF-0.001
aF-0.001
aF-0.001
aF-0.001
aF-0.001
aF-0.001
aF-0.001
aF-0.001
aF-0.001
aF-0.001
aF-0.001
aF-0.001
aF-0.001
aF-0.001
aF-0.001
aF-0.001
aF-0.001
aF-0.001
aF-0.001
aF-0.001
aF-0.001
aF-0.001
aF-0.001
aF-0.001
aF-0.001
aF-0.001
aF-0.001
aF-0.001
aF-0.001
aF-0.001
aF-0.001
aF-0.001
aF-0.001
aF-0.001
aF-0.001
aF-0.001
aF-0.001
aF-0.001
aa(lp148
F-0.001
aF-0.001
aF-0.001
aF-0.001
aF-0.001
aF-0.001
aF-0.001
aF-0.001
aF-0.001
aF-0.001
aF-0.001
aF-0.001
aF-0.001
aF-0.001
aF-0.001
aF-0.001
aF-0.001
aF-0.001
aF-0.001
aF-0.001
aF-0.001
aF-0.001
aF-0.001
aF-0.001
aF-0.001
aF-0.001
aF-0.001
aF-0.001
aF-0.001
aF-0.001
aF-0.001
aF-0.001
aF-0.001
aF-0.001
aF-0.001
aF-0.001
aF-0.001
aF-0.001
aF-0.001
aF-0.001
aF-0.001
aF-0.001
aF-0.001
aF-0.001
aF-0.001
aF-0.001
aF-0.001
aF-0.001
aF-0.001
aF-0.001
aF-0.001
aF-0.001
aF-0.001
aF-0.001
aF-0.001
aF-0.001
aF-0.001
aF-0.001
aF-0.001
aF-0.001
aF-0.001
aF-0.001
aF-0.001
aF-0.001
aF-0.001
aF-0.001
aF-0.001
aF-0.001
aF-0.001
aa(lp149
F-0.001
aF-0.001
aF-0.001
aF-0.001
aF-0.001
aF-0.001
aF-0.001
aF-0.001
aF-0.001
aF-0.001
aF-0.001
aF-0.001
aF-0.001
aF-0.001
aF-0.001
aF-0.001
aF-0.001
aF-0.001
aF-0.001
aF-0.001
aF-0.001
aF-0.001
aF-0.001
aF-0.001
aF-0.001
aF-0.001
aF-0.001
aF-0.001
aF-0.001
aF-0.001
aF-0.001
aF-0.001
aF-0.001
aF-0.001
aF-0.001
aF-0.001
aF-0.001
aF-0.001
aF-0.001
aF-0.001
aF-0.001
aF-0.001
aF-0.001
aF-0.001
aF-0.001
aF-0.001
aF-0.001
aF-0.001
aa(lp150
F-0.001
aF-0.001
aF-0.001
aF-0.001
aF-0.001
aF-0.001
aF-0.001
aF-0.001
aF-0.001
aF-0.001
aF-0.001
aF-0.001
aF-0.001
aF-0.001
aF-0.001
aF-0.001
aF-0.001
aF-0.001
aF-0.001
aF-0.001
aF-0.001
aF-0.001
aF-0.001
aF-0.001
aF-0.001
aF-0.001
aF-0.001
aF-0.001
aF-0.001
aF-0.001
aF-0.001
aF-0.001
aF-0.001
aF-0.001
aF-0.001
aF-0.001
aF-0.001
aF-0.001
aF-0.001
aF-0.001
aF-0.001
aF-0.001
aF-0.001
aF-0.001
aF-0.001
aF-0.001
aF-0.001
aF-0.001
aF-0.001
aF-0.001
aF-0.001
aF-0.001
aF-0.001
aF-0.001
aa(lp151
F-0.001
aF-0.001
aF-0.001
aF-0.001
aF-0.001
aF-0.001
aF-0.001
aF-0.001
aF-0.001
aF-0.001
aF-0.001
aF-0.001
aF-0.001
aF-0.001
aF-0.001
aF-0.001
aF-0.001
aF-0.001
aF-0.001
aF-0.001
aF-0.001
aF-0.001
aF-0.001
aF-0.001
aF-0.001
aF-0.001
aF-0.001
aF-0.001
aF-0.001
aF-0.001
aF-0.001
aF-0.001
aF-0.001
aF-0.001
aF-0.001
aF-0.001
aF-0.001
aF-0.001
aF-0.001
aF-0.001
aF-0.001
aF-0.001
aF-0.001
aF-0.001
aF-0.001
aF-0.001
aF-0.001
aF-0.001
aF-0.001
aF-0.001
aF-0.001
aF-0.001
aF-0.001
aF-0.001
aF-0.001
aF-0.001
aa(lp152
F-0.001
aF-0.001
aF-0.001
aF-0.001
aF-0.001
aF-0.001
aF-0.001
aF-0.001
aF-0.001
aF-0.001
aF-0.001
aF-0.001
aF-0.001
aF-0.001
aF-0.001
aF-0.001
aF-0.001
aF-0.001
aF-0.001
aF-0.001
aF-0.001
aF-0.001
aF-0.001
aF-0.001
aF-0.001
aF-0.001
aF-0.001
aF-0.001
aF-0.001
aF-0.001
aF-0.001
aF-0.001
aF-0.001
aF-0.001
aF-0.001
aF-0.001
aF-0.001
aF-0.001
aF-0.001
aF-0.001
aF-0.001
aF-0.001
aF-0.001
aF-0.001
aF-0.001
aF-0.001
aF-0.001
aF-0.001
aF-0.001
aF-0.001
aa(lp153
F-0.001
aF-0.001
aF-0.001
aF-0.001
aF-0.001
aF-0.001
aF-0.001
aF-0.001
aF-0.001
aF-0.001
aF-0.001
aF-0.001
aF-0.001
aF-0.001
aF-0.001
aF-0.001
aF-0.001
aF-0.001
aF-0.001
aF-0.001
aF-0.001
aF-0.001
aF-0.001
aF-0.001
aF-0.001
aF-0.001
aF-0.001
aF-0.001
aF-0.001
aF-0.001
aF-0.001
aF-0.001
aF-0.001
aF-0.001
aF-0.001
aF-0.001
aF-0.001
aF-0.001
aF-0.001
aF-0.001
aF-0.001
aF-0.001
aF-0.001
aF-0.001
aF-0.001
aF-0.001
aF-0.001
aF-0.001
aF-0.001
aF-0.001
aF-0.001
aF-0.001
aF-0.001
aF-0.001
aF-0.001
aF-0.001
aF-0.001
aF-0.001
aF-0.001
aF-0.001
aF-0.001
aF-0.001
aF-0.001
aF-0.001
aF-0.001
aF-0.001
aF-0.001
aF-0.001
aa(lp154
F-0.001
aF-0.001
aF-0.001
aF-0.001
aF-0.001
aF-0.001
aF-0.001
aF-0.001
aF-0.001
aF-0.001
aF-0.001
aF-0.001
aF-0.001
aF-0.001
aF-0.001
aF-0.001
aF-0.001
aF-0.001
aF-0.001
aF-0.001
aF-0.001
aF-0.001
aF-0.001
aF-0.001
aF-0.001
aF-0.001
aF-0.001
aF-0.001
aF-0.001
aF-0.001
aF-0.001
aF-0.001
aF-0.001
aF-0.001
aF-0.001
aF-0.001
aF-0.001
aF-0.001
aF-0.001
aF-0.001
aF-0.001
aF-0.001
aF-0.001
aF-0.001
aF-0.001
aF-0.001
aF-0.001
aF-0.001
aF-0.001
aF-0.001
aF-0.001
aF-0.001
aF-0.001
aF-0.001
aF-0.001
aF-0.001
aF-0.001
aF-0.001
aF-0.001
aF-0.001
aF-0.001
aF-0.001
aa(lp155
F-0.001
aF-0.001
aF-0.001
aF-0.001
aF-0.001
aF-0.001
aF-0.001
aF-0.001
aF-0.001
aF-0.001
aF-0.001
aF-0.001
aF-0.001
aF-0.001
aF-0.001
aF-0.001
aF-0.001
aF-0.001
aF-0.001
aF-0.001
aF-0.001
aF-0.001
aF-0.001
aF-0.001
aF-0.001
aF-0.001
aF-0.001
aF-0.001
aF-0.001
aF-0.001
aF-0.001
aF-0.001
aF-0.001
aF-0.001
aF-0.001
aF-0.001
aF-0.001
aF-0.001
aF-0.001
aF-0.001
aF-0.001
aF-0.001
aF-0.001
aF-0.001
aF-0.001
aF-0.001
aF-0.001
aF-0.001
aF-0.001
aF-0.001
aF-0.001
aF-0.001
aF-0.001
aF-0.001
aF-0.001
aF-0.001
aF-0.001
aa(lp156
F-0.001
aF-0.001
aF-0.001
aF-0.001
aF-0.001
aF-0.001
aF-0.001
aF-0.001
aF-0.001
aF-0.001
aF-0.001
aF-0.001
aF-0.001
aF-0.001
aF-0.001
aF-0.001
aF-0.001
aF-0.001
aF-0.001
aF-0.001
aF-0.001
aF-0.001
aF-0.001
aF-0.001
aF-0.001
aF-0.001
aF-0.001
aF-0.001
aF-0.001
aF-0.001
aF-0.001
aF-0.001
aF-0.001
aF-0.001
aF-0.001
aF-0.001
aF-0.001
aF-0.001
aF-0.001
aF-0.001
aF-0.001
aF-0.001
aF-0.001
aF-0.001
aF-0.001
aF-0.001
aF-0.001
aF-0.001
aF-0.001
aF-0.001
aF-0.001
aF-0.001
aF-0.001
aF-0.001
aF-0.001
aa(lp157
F-0.001
aF-0.001
aF-0.001
aF-0.001
aF-0.001
aF-0.001
aF-0.001
aF-0.001
aF-0.001
aF-0.001
aF-0.001
aF-0.001
aF-0.001
aF-0.001
aF-0.001
aF-0.001
aF-0.001
aF-0.001
aF-0.001
aF-0.001
aF-0.001
aF-0.001
aF-0.001
aF-0.001
aF-0.001
aF-0.001
aF-0.001
aF-0.001
aF-0.001
aF-0.001
aF-0.001
aF-0.001
aF-0.001
aF-0.001
aF-0.001
aF-0.001
aF-0.001
aF-0.001
aF-0.001
aF-0.001
aF-0.001
aF-0.001
aF-0.001
aF-0.001
aF-0.001
aF-0.001
aF-0.001
aF-0.001
aF-0.001
aF-0.001
aF-0.001
aF-0.001
aF-0.001
aF-0.001
aF-0.001
aF-0.001
aF-0.001
aF-0.001
aF-0.001
aa(lp158
F-0.001
aF-0.001
aF-0.001
aF-0.001
aF-0.001
aF-0.001
aF-0.001
aF-0.001
aF-0.001
aF-0.001
aF-0.001
aF-0.001
aF-0.001
aF-0.001
aF-0.001
aF-0.001
aF-0.001
aF-0.001
aF-0.001
aF-0.001
aF-0.001
aF-0.001
aF-0.001
aF-0.001
aF-0.001
aF-0.001
aF-0.001
aF-0.001
aF-0.001
aF-0.001
aF-0.001
aF-0.001
aF-0.001
aF-0.001
aF-0.001
aF-0.001
aF-0.001
aF-0.001
aF-0.001
aF-0.001
aF-0.001
aF-0.001
aF-0.001
aF-0.001
aF-0.001
aF-0.001
aF-0.001
aF-0.001
aF-0.001
aF-0.001
aF-0.001
aF-0.001
aF-0.001
aF-0.001
aF-0.001
aF-0.001
aF-0.001
aF-0.001
aF-0.001
aF-0.001
aF-0.001
aF-0.001
aF-0.001
aF-0.001
aF-0.001
aF-0.001
aF-0.001
aF-0.001
aF-0.001
aF-0.001
aF-0.001
aF-0.001
aF-0.001
aF-0.001
aF-0.001
aa(lp159
F-0.001
aF-0.001
aF-0.001
aF-0.001
aF-0.001
aF-0.001
aF-0.001
aF-0.001
aF-0.001
aF-0.001
aF-0.001
aF-0.001
aF-0.001
aF-0.001
aF-0.001
aF-0.001
aF-0.001
aF-0.001
aF-0.001
aF-0.001
aF-0.001
aF-0.001
aF-0.001
aF-0.001
aF-0.001
aF-0.001
aF-0.001
aF-0.001
aF-0.001
aF-0.001
aF-0.001
aF-0.001
aF-0.001
aF-0.001
aF-0.001
aF-0.001
aF-0.001
aF-0.001
aF-0.001
aF-0.001
aF-0.001
aF-0.001
aF-0.001
aF-0.001
aF-0.001
aF-0.001
aF-0.001
aF-0.001
aF-0.001
aF-0.001
aF-0.001
aF-0.001
aa(lp160
F-0.001
aF-0.001
aF-0.001
aF-0.001
aF-0.001
aF-0.001
aF-0.001
aF-0.001
aF-0.001
aF-0.001
aF-0.001
aF-0.001
aF-0.001
aF-0.001
aF-0.001
aF-0.001
aF-0.001
aF-0.001
aF-0.001
aF-0.001
aF-0.001
aF-0.001
aF-0.001
aF-0.001
aF-0.001
aF-0.001
aF-0.001
aF-0.001
aF-0.001
aF-0.001
aF-0.001
aF-0.001
aF-0.001
aF-0.001
aF-0.001
aF-0.001
aF-0.001
aF-0.001
aF-0.001
aF-0.001
aF-0.001
aF-0.001
aF-0.001
aF-0.001
aF-0.001
aF-0.001
aF-0.001
aF-0.001
aF-0.001
aF-0.001
aF-0.001
aF-0.001
aF-0.001
aF-0.001
aF-0.001
aF-0.001
aF-0.001
aF-0.001
aF-0.001
aF-0.001
aF-0.001
aF-0.001
aF-0.001
aF-0.001
aF-0.001
aF-0.001
aF-0.001
aF-0.001
aF-0.001
aF-0.001
aF-0.001
aF-0.001
aF-0.001
aF-0.001
aF-0.001
aF-0.001
aF-0.001
aF-0.001
aF-0.001
aa(lp161
F-0.001
aF-0.001
aF-0.001
aF-0.001
aF-0.001
aF-0.001
aF-0.001
aF-0.001
aF-0.001
aF-0.001
aF-0.001
aF-0.001
aF-0.001
aF-0.001
aF-0.001
aF-0.001
aF-0.001
aF-0.001
aF-0.001
aF-0.001
aF-0.001
aF-0.001
aF-0.001
aF-0.001
aF-0.001
aF-0.001
aF-0.001
aF-0.001
aF-0.001
aF-0.001
aF-0.001
aF-0.001
aF-0.001
aF-0.001
aF-0.001
aF-0.001
aF-0.001
aF-0.001
aF-0.001
aF-0.001
aF-0.001
aF-0.001
aF-0.001
aF-0.001
aF-0.001
aF-0.001
aF-0.001
aF-0.001
aF-0.001
aF-0.001
aF-0.001
aF-0.001
aF-0.001
aF-0.001
aF-0.001
aF-0.001
aF-0.001
aF-0.001
aF-0.001
aF-0.001
aF-0.001
aF-0.001
aF-0.001
aF-0.001
aa(lp162
F-0.001
aF-0.001
aF-0.001
aF-0.001
aF-0.001
aF-0.001
aF-0.001
aF-0.001
aF-0.001
aF-0.001
aF-0.001
aF-0.001
aF-0.001
aF-0.001
aF-0.001
aF-0.001
aF-0.001
aF-0.001
aF-0.001
aF-0.001
aF-0.001
aF-0.001
aF-0.001
aF-0.001
aF-0.001
aF-0.001
aF-0.001
aF-0.001
aF-0.001
aF-0.001
aF-0.001
aF-0.001
aF-0.001
aF-0.001
aF-0.001
aF-0.001
aF-0.001
aF-0.001
aF-0.001
aF-0.001
aF-0.001
aF-0.001
aF-0.001
aF-0.001
aF-0.001
aF-0.001
aF-0.001
aF-0.001
aF-0.001
aF-0.001
aF-0.001
aF-0.001
aF-0.001
aF-0.001
aF-0.001
aF-0.001
aF-0.001
aF-0.001
aF-0.001
aF-0.001
aF-0.001
aF-0.001
aF-0.001
aF-0.001
aF-0.001
aF-0.001
aF-0.001
aF-0.001
aF-0.001
aF-0.001
aF-0.001
aa(lp163
F-0.001
aF-0.001
aF-0.001
aF-0.001
aF-0.001
aF-0.001
aF-0.001
aF-0.001
aF-0.001
aF-0.001
aF-0.001
aF-0.001
aF-0.001
aF-0.001
aF-0.001
aF-0.001
aF-0.001
aF-0.001
aF-0.001
aF-0.001
aF-0.001
aF-0.001
aF-0.001
aF-0.001
aF-0.001
aF-0.001
aF-0.001
aF-0.001
aF-0.001
aF-0.001
aF-0.001
aF-0.001
aF-0.001
aF-0.001
aF-0.001
aF-0.001
aF-0.001
aF-0.001
aF-0.001
aF-0.001
aF-0.001
aF-0.001
aF-0.001
aF-0.001
aF-0.001
aF-0.001
aF-0.001
aF-0.001
aF-0.001
aF-0.001
aF-0.001
aF-0.001
aF-0.001
aF-0.001
aF-0.001
aF-0.001
aF-0.001
aF-0.001
aF-0.001
aF-0.001
aF-0.001
aF-0.001
aF-0.001
aF-0.001
aF-0.001
aF-0.001
aF-0.001
aF-0.001
aa(lp164
F-0.001
aF-0.001
aF-0.001
aF-0.001
aF-0.001
aF-0.001
aF-0.001
aF-0.001
aF-0.001
aF-0.001
aF-0.001
aF-0.001
aF-0.001
aF-0.001
aF-0.001
aF-0.001
aF-0.001
aF-0.001
aF-0.001
aF-0.001
aF-0.001
aF-0.001
aF-0.001
aF-0.001
aF-0.001
aF-0.001
aF-0.001
aF-0.001
aF-0.001
aF-0.001
aF-0.001
aF-0.001
aF-0.001
aF-0.001
aF-0.001
aF-0.001
aF-0.001
aF-0.001
aF-0.001
aF-0.001
aF-0.001
aF-0.001
aF-0.001
aF-0.001
aF-0.001
aF-0.001
aF-0.001
aF-0.001
aF-0.001
aF-0.001
aF-0.001
aF-0.001
aF-0.001
aF-0.001
aF-0.001
aF-0.001
aF-0.001
aa(lp165
F-0.001
aF-0.001
aF-0.001
aF-0.001
aF-0.001
aF-0.001
aF-0.001
aF-0.001
aF-0.001
aF-0.001
aF-0.001
aF-0.001
aF-0.001
aF-0.001
aF-0.001
aF-0.001
aF-0.001
aF-0.001
aF-0.001
aF-0.001
aF-0.001
aF-0.001
aF-0.001
aF-0.001
aF-0.001
aF-0.001
aF-0.001
aF-0.001
aF-0.001
aF-0.001
aF-0.001
aF-0.001
aF-0.001
aF-0.001
aF-0.001
aF-0.001
aF-0.001
aF-0.001
aF-0.001
aF-0.001
aF-0.001
aF-0.001
aF-0.001
aF-0.001
aF-0.001
aF-0.001
aF-0.001
aF-0.001
aF-0.001
aF-0.001
aF-0.001
aF-0.001
aF-0.001
aF-0.001
aF-0.001
aF-0.001
aF-0.001
aF-0.001
aF-0.001
aF-0.001
aF-0.001
aF-0.001
aF-0.001
aF-0.001
aF-0.001
aa(lp166
F-0.001
aF-0.001
aF-0.001
aF-0.001
aF-0.001
aF-0.001
aF-0.001
aF-0.001
aF-0.001
aF-0.001
aF-0.001
aF-0.001
aF-0.001
aF-0.001
aF-0.001
aF-0.001
aF-0.001
aF-0.001
aF-0.001
aF-0.001
aF-0.001
aF-0.001
aF-0.001
aF-0.001
aF-0.001
aF-0.001
aF-0.001
aF-0.001
aF-0.001
aF-0.001
aF-0.001
aF-0.001
aF-0.001
aF-0.001
aF-0.001
aF-0.001
aF-0.001
aF-0.001
aF-0.001
aF-0.001
aF-0.001
aF-0.001
aF-0.001
aF-0.001
aF-0.001
aF-0.001
aF-0.001
aF-0.001
aF-0.001
aF-0.001
aF-0.001
aF-0.001
aF-0.001
aF-0.001
aF-0.001
aF-0.001
aF-0.001
aF-0.001
aF-0.001
aF-0.001
aF-0.001
aF-0.001
aF-0.001
aF-0.001
aF-0.001
aF-0.001
aF-0.001
aF-0.001
aF-0.001
aF-0.001
aF-0.001
aF-0.001
aF-0.001
aa(lp167
F-0.001
aF-0.001
aF-0.001
aF-0.001
aF-0.001
aF-0.001
aF-0.001
aF-0.001
aF-0.001
aF-0.001
aF-0.001
aF-0.001
aF-0.001
aF-0.001
aF-0.001
aF-0.001
aF-0.001
aF-0.001
aF-0.001
aF-0.001
aF-0.001
aF-0.001
aF-0.001
aF-0.001
aF-0.001
aF-0.001
aF-0.001
aF-0.001
aF-0.001
aF-0.001
aF-0.001
aF-0.001
aF-0.001
aF-0.001
aF-0.001
aF-0.001
aF-0.001
aF-0.001
aF-0.001
aF-0.001
aF-0.001
aF-0.001
aF-0.001
aF-0.001
aF-0.001
aF-0.001
aF-0.001
aF-0.001
aF-0.001
aF-0.001
aF-0.001
aF-0.001
aF-0.001
aF-0.001
aF-0.001
aF-0.001
aF-0.001
aF-0.001
aa(lp168
F-0.001
aF-0.001
aF-0.001
aF-0.001
aF-0.001
aF-0.001
aF-0.001
aF-0.001
aF-0.001
aF-0.001
aF-0.001
aF-0.001
aF-0.001
aF-0.001
aF-0.001
aF-0.001
aF-0.001
aF-0.001
aF-0.001
aF-0.001
aF-0.001
aF-0.001
aF-0.001
aF-0.001
aF-0.001
aF-0.001
aF-0.001
aF-0.001
aF-0.001
aF-0.001
aF-0.001
aF-0.001
aF-0.001
aF-0.001
aF-0.001
aF-0.001
aF-0.001
aF-0.001
aF-0.001
aF-0.001
aF-0.001
aF-0.001
aF-0.001
aF-0.001
aF-0.001
aF-0.001
aF-0.001
aF-0.001
aF-0.001
aF-0.001
aF-0.001
aa(lp169
F-0.001
aF-0.001
aF-0.001
aF-0.001
aF-0.001
aF-0.001
aF-0.001
aF-0.001
aF-0.001
aF-0.001
aF-0.001
aF-0.001
aF-0.001
aF-0.001
aF-0.001
aF-0.001
aF-0.001
aF-0.001
aF-0.001
aF-0.001
aF-0.001
aF-0.001
aF-0.001
aF-0.001
aF-0.001
aF-0.001
aF-0.001
aF-0.001
aF-0.001
aF-0.001
aF-0.001
aF-0.001
aF-0.001
aF-0.001
aF-0.001
aF-0.001
aF-0.001
aF-0.001
aF-0.001
aF-0.001
aF-0.001
aF-0.001
aF-0.001
aF-0.001
aF-0.001
aF-0.001
aF-0.001
aF-0.001
aF-0.001
aF-0.001
aF-0.001
aF-0.001
aF-0.001
aF-0.001
aF-0.001
aF-0.001
aF-0.001
aF-0.001
aF-0.001
aF-0.001
aF-0.001
aF-0.001
aF-0.001
aF-0.001
aF-0.001
aa(lp170
F-0.001
aF-0.001
aF-0.001
aF-0.001
aF-0.001
aF-0.001
aF-0.001
aF-0.001
aF-0.001
aF-0.001
aF-0.001
aF-0.001
aF-0.001
aF-0.001
aF-0.001
aF-0.001
aF-0.001
aF-0.001
aF-0.001
aF-0.001
aF-0.001
aF-0.001
aF-0.001
aF-0.001
aF-0.001
aF-0.001
aF-0.001
aF-0.001
aF-0.001
aF-0.001
aF-0.001
aF-0.001
aF-0.001
aF-0.001
aF-0.001
aF-0.001
aF-0.001
aF-0.001
aF-0.001
aF-0.001
aF-0.001
aF-0.001
aF-0.001
aF-0.001
aF-0.001
aF-0.001
aF-0.001
aF-0.001
aF-0.001
aF-0.001
aF-0.001
aF-0.001
aF-0.001
aF-0.001
aF-0.001
aF-0.001
aF-0.001
aa(lp171
F-0.001
aF-0.001
aF-0.001
aF-0.001
aF-0.001
aF-0.001
aF-0.001
aF-0.001
aF-0.001
aF-0.001
aF-0.001
aF-0.001
aF-0.001
aF-0.001
aF-0.001
aF-0.001
aF-0.001
aF-0.001
aF-0.001
aF-0.001
aF-0.001
aF-0.001
aF-0.001
aF-0.001
aF-0.001
aF-0.001
aF-0.001
aF-0.001
aF-0.001
aF-0.001
aF-0.001
aF-0.001
aF-0.001
aF-0.001
aF-0.001
aF-0.001
aF-0.001
aF-0.001
aF-0.001
aF-0.001
aF-0.001
aF-0.001
aF-0.001
aF-0.001
aF-0.001
aF-0.001
aF-0.001
aF-0.001
aF-0.001
aF-0.001
aF-0.001
aF-0.001
aF-0.001
aF-0.001
aa(lp172
F-0.001
aF-0.001
aF-0.001
aF-0.001
aF-0.001
aF-0.001
aF-0.001
aF-0.001
aF-0.001
aF-0.001
aF-0.001
aF-0.001
aF-0.001
aF-0.001
aF-0.001
aF-0.001
aF-0.001
aF-0.001
aF-0.001
aF-0.001
aF-0.001
aF-0.001
aF-0.001
aF-0.001
aF-0.001
aF-0.001
aF-0.001
aF-0.001
aF-0.001
aF-0.001
aF-0.001
aF-0.001
aF-0.001
aF-0.001
aF-0.001
aF-0.001
aF-0.001
aF-0.001
aF-0.001
aF-0.001
aF-0.001
aF-0.001
aa(lp173
F-0.001
aF-0.001
aF-0.001
aF-0.001
aF-0.001
aF-0.001
aF-0.001
aF-0.001
aF-0.001
aF-0.001
aF-0.001
aF-0.001
aF-0.001
aF-0.001
aF-0.001
aF-0.001
aF-0.001
aF-0.001
aF-0.001
aF-0.001
aF-0.001
aF-0.001
aF-0.001
aF-0.001
aF-0.001
aF-0.001
aF-0.001
aF-0.001
aF-0.001
aF-0.001
aF-0.001
aF-0.001
aF-0.001
aF-0.001
aF-0.001
aF-0.001
aF-0.001
aF-0.001
aF-0.001
aF-0.001
aF-0.001
aF-0.001
aF-0.001
aF-0.001
aF-0.001
aF-0.001
aF-0.001
aF-0.001
aF-0.001
aF-0.001
aF-0.001
aF-0.001
aF-0.001
aF-0.001
aF-0.001
aF-0.001
aF-0.001
aF-0.001
aF-0.001
aF-0.001
aF-0.001
aF-0.001
aF-0.001
aF-0.001
aF-0.001
aF-0.001
aa(lp174
F-0.001
aF-0.001
aF-0.001
aF-0.001
aF-0.001
aF-0.001
aF-0.001
aF-0.001
aF-0.001
aF-0.001
aF-0.001
aF-0.001
aF-0.001
aF-0.001
aF-0.001
aF-0.001
aF-0.001
aF-0.001
aF-0.001
aF-0.001
aF-0.001
aF-0.001
aF-0.001
aF-0.001
aF-0.001
aF-0.001
aF-0.001
aF-0.001
aF-0.001
aF-0.001
aF-0.001
aF-0.001
aF-0.001
aF-0.001
aF-0.001
aF-0.001
aF-0.001
aF-0.001
aF-0.001
aF-0.001
aF-0.001
aF-0.001
aF-0.001
aF-0.001
aF-0.001
aF-0.001
aF-0.001
aF-0.001
aF-0.001
aF-0.001
aF-0.001
aF-0.001
aF-0.001
aF-0.001
aF-0.001
aF-0.001
aF-0.001
aF-0.001
aF-0.001
aF-0.001
aF-0.001
aF-0.001
aF-0.001
aF-0.001
aF-0.001
aF-0.001
aa(lp175
F-0.001
aF-0.001
aF-0.001
aF-0.001
aF-0.001
aF-0.001
aF-0.001
aF-0.001
aF-0.001
aF-0.001
aF-0.001
aF-0.001
aF-0.001
aF-0.001
aF-0.001
aF-0.001
aF-0.001
aF-0.001
aF-0.001
aF-0.001
aF-0.001
aF-0.001
aF-0.001
aF-0.001
aF-0.001
aF-0.001
aF-0.001
aF-0.001
aF-0.001
aF-0.001
aF-0.001
aF-0.001
aF-0.001
aF-0.001
aF-0.001
aF-0.001
aF-0.001
aF-0.001
aF-0.001
aF-0.001
aF-0.001
aF-0.001
aF-0.001
aF-0.001
aF-0.001
aF-0.001
aF-0.001
aF-0.001
aF-0.001
aF-0.001
aF-0.001
aF-0.001
aF-0.001
aF-0.001
aF-0.001
aF-0.001
aa(lp176
F-0.001
aF-0.001
aF-0.001
aF-0.001
aF-0.001
aF-0.001
aF-0.001
aF-0.001
aF-0.001
aF-0.001
aF-0.001
aF-0.001
aF-0.001
aF-0.001
aF-0.001
aF-0.001
aF-0.001
aF-0.001
aF-0.001
aF-0.001
aF-0.001
aF-0.001
aF-0.001
aF-0.001
aF-0.001
aF-0.001
aF-0.001
aF-0.001
aF-0.001
aF-0.001
aF-0.001
aF-0.001
aF-0.001
aF-0.001
aF-0.001
aF-0.001
aF-0.001
aF-0.001
aF-0.001
aF-0.001
aF-0.001
aF-0.001
aF-0.001
aF-0.001
aF-0.001
aF-0.001
aF-0.001
aF-0.001
aF-0.001
aF-0.001
aa(lp177
F-0.001
aF-0.001
aF-0.001
aF-0.001
aF-0.001
aF-0.001
aF-0.001
aF-0.001
aF-0.001
aF-0.001
aF-0.001
aF-0.001
aF-0.001
aF-0.001
aF-0.001
aF-0.001
aF-0.001
aF-0.001
aF-0.001
aF-0.001
aF-0.001
aF-0.001
aF-0.001
aF-0.001
aF-0.001
aF-0.001
aF-0.001
aF-0.001
aF-0.001
aF-0.001
aF-0.001
aF-0.001
aF-0.001
aF-0.001
aF-0.001
aF-0.001
aF-0.001
aF-0.001
aF-0.001
aF-0.001
aF-0.001
aF-0.001
aF-0.001
aF-0.001
aF-0.001
aF-0.001
aF-0.001
aF-0.001
aF-0.001
aF-0.001
aF-0.001
aF-0.001
aF-0.001
aF-0.001
aF-0.001
aF-0.001
aF-0.001
aF-0.001
aa(lp178
F-0.001
aF-0.001
aF-0.001
aF-0.001
aF-0.001
aF-0.001
aF-0.001
aF-0.001
aF-0.001
aF-0.001
aF-0.001
aF-0.001
aF-0.001
aF-0.001
aF-0.001
aF-0.001
aF-0.001
aF-0.001
aF-0.001
aF-0.001
aF-0.001
aF-0.001
aF-0.001
aF-0.001
aF-0.001
aF-0.001
aF-0.001
aF-0.001
aF-0.001
aF-0.001
aF-0.001
aF-0.001
aF-0.001
aF-0.001
aF-0.001
aF-0.001
aF-0.001
aF-0.001
aF-0.001
aF-0.001
aF-0.001
aF-0.001
aF-0.001
aF-0.001
aF-0.001
aF-0.001
aF-0.001
aF-0.001
aF-0.001
aF-0.001
aF-0.001
aF-0.001
aF-0.001
aF-0.001
aF-0.001
aa(lp179
F-0.001
aF-0.001
aF-0.001
aF-0.001
aF-0.001
aF-0.001
aF-0.001
aF-0.001
aF-0.001
aF-0.001
aF-0.001
aF-0.001
aF-0.001
aF-0.001
aF-0.001
aF-0.001
aF-0.001
aF-0.001
aF-0.001
aF-0.001
aF-0.001
aF-0.001
aF-0.001
aF-0.001
aF-0.001
aF-0.001
aF-0.001
aF-0.001
aF-0.001
aF-0.001
aF-0.001
aF-0.001
aF-0.001
aF-0.001
aF-0.001
aF-0.001
aF-0.001
aF-0.001
aF-0.001
aF-0.001
aF-0.001
aF-0.001
aF-0.001
aF-0.001
aF-0.001
aF-0.001
aF-0.001
aa(lp180
F-0.001
aF-0.001
aF-0.001
aF-0.001
aF-0.001
aF-0.001
aF-0.001
aF-0.001
aF-0.001
aF-0.001
aF-0.001
aF-0.001
aF-0.001
aF-0.001
aF-0.001
aF-0.001
aF-0.001
aF-0.001
aF-0.001
aF-0.001
aF-0.001
aF-0.001
aF-0.001
aF-0.001
aF-0.001
aF-0.001
aF-0.001
aF-0.001
aF-0.001
aF-0.001
aF-0.001
aF-0.001
aF-0.001
aF-0.001
aF-0.001
aF-0.001
aF-0.001
aF-0.001
aF-0.001
aF-0.001
aF-0.001
aF-0.001
aF-0.001
aF-0.001
aF-0.001
aF-0.001
aF-0.001
aF-0.001
aF-0.001
aF-0.001
aa(lp181
F-0.001
aF-0.001
aF-0.001
aF-0.001
aF-0.001
aF-0.001
aF-0.001
aF-0.001
aF-0.001
aF-0.001
aF-0.001
aF-0.001
aF-0.001
aF-0.001
aF-0.001
aF-0.001
aF-0.001
aF-0.001
aF-0.001
aF-0.001
aF-0.001
aF-0.001
aF-0.001
aF-0.001
aF-0.001
aF-0.001
aF-0.001
aF-0.001
aF-0.001
aF-0.001
aF-0.001
aF-0.001
aF-0.001
aF-0.001
aF-0.001
aF-0.001
aF-0.001
aF-0.001
aF-0.001
aF-0.001
aF-0.001
aF-0.001
aF-0.001
aF-0.001
aF-0.001
aF-0.001
aF-0.001
aF-0.001
aF-0.001
aF-0.001
aF-0.001
aF-0.001
aF-0.001
aF-0.001
aF-0.001
aF-0.001
aF-0.001
aF-0.001
aF-0.001
aF-0.001
aF-0.001
aF-0.001
aF-0.001
aa(lp182
F-0.001
aF-0.001
aF-0.001
aF-0.001
aF-0.001
aF-0.001
aF-0.001
aF-0.001
aF-0.001
aF-0.001
aF-0.001
aF-0.001
aF-0.001
aF-0.001
aF-0.001
aF-0.001
aF-0.001
aF-0.001
aF-0.001
aF-0.001
aF-0.001
aF-0.001
aF-0.001
aF-0.001
aF-0.001
aF-0.001
aF-0.001
aF-0.001
aF-0.001
aF-0.001
aF-0.001
aF-0.001
aF-0.001
aF-0.001
aF-0.001
aF-0.001
aF-0.001
aF-0.001
aF-0.001
aF-0.001
aF-0.001
aF-0.001
aF-0.001
aF-0.001
aF-0.001
aF-0.001
aF-0.001
aF-0.001
aF-0.001
aF-0.001
aF-0.001
aF-0.001
aF-0.001
aF-0.001
aF-0.001
aF-0.001
aF-0.001
aF-0.001
aF-0.001
aF-0.001
aF-0.001
aF-0.001
aF-0.001
aF-0.001
aF-0.001
aF-0.001
aF-0.001
aF-0.001
aF-0.001
aF-0.001
aF-0.001
aa(lp183
F-0.001
aF-0.001
aF-0.001
aF-0.001
aF-0.001
aF-0.001
aF-0.001
aF-0.001
aF-0.001
aF-0.001
aF-0.001
aF-0.001
aF-0.001
aF-0.001
aF-0.001
aF-0.001
aF-0.001
aF-0.001
aF-0.001
aF-0.001
aF-0.001
aF-0.001
aF-0.001
aF-0.001
aF-0.001
aF-0.001
aF-0.001
aF-0.001
aF-0.001
aF-0.001
aF-0.001
aF-0.001
aF-0.001
aF-0.001
aF-0.001
aF-0.001
aF-0.001
aF-0.001
aF-0.001
aF-0.001
aF-0.001
aF-0.001
aF-0.001
aF-0.001
aF-0.001
aF-0.001
aF-0.001
aF-0.001
aF-0.001
aF-0.001
aF-0.001
aF-0.001
aF-0.001
aF-0.001
aF-0.001
aF-0.001
aF-0.001
aF-0.001
aa(lp184
F-0.001
aF-0.001
aF-0.001
aF-0.001
aF-0.001
aF-0.001
aF-0.001
aF-0.001
aF-0.001
aF-0.001
aF-0.001
aF-0.001
aF-0.001
aF-0.001
aF-0.001
aF-0.001
aF-0.001
aF-0.001
aF-0.001
aF-0.001
aF-0.001
aF-0.001
aF-0.001
aF-0.001
aF-0.001
aF-0.001
aF-0.001
aF-0.001
aF-0.001
aF-0.001
aF-0.001
aF-0.001
aF-0.001
aF-0.001
aF-0.001
aF-0.001
aF-0.001
aF-0.001
aF-0.001
aF-0.001
aF-0.001
aF-0.001
aF-0.001
aF-0.001
aF-0.001
aF-0.001
aF-0.001
aF-0.001
aF-0.001
aF-0.001
aF-0.001
aF-0.001
aF-0.001
aF-0.001
aa(lp185
F-0.001
aF-0.001
aF-0.001
aF-0.001
aF-0.001
aF-0.001
aF-0.001
aF-0.001
aF-0.001
aF-0.001
aF-0.001
aF-0.001
aF-0.001
aF-0.001
aF-0.001
aF-0.001
aF-0.001
aF-0.001
aF-0.001
aF-0.001
aF-0.001
aF-0.001
aF-0.001
aF-0.001
aF-0.001
aF-0.001
aF-0.001
aF-0.001
aF-0.001
aF-0.001
aF-0.001
aF-0.001
aF-0.001
aF-0.001
aF-0.001
aF-0.001
aF-0.001
aF-0.001
aF-0.001
aF-0.001
aF-0.001
aF-0.001
aF-0.001
aF-0.001
aF-0.001
aF-0.001
aF-0.001
aF-0.001
aF-0.001
aF-0.001
aF-0.001
aF-0.001
aF-0.001
aF-0.001
aF-0.001
aa(lp186
F-0.001
aF-0.001
aF-0.001
aF-0.001
aF-0.001
aF-0.001
aF-0.001
aF-0.001
aF-0.001
aF-0.001
aF-0.001
aF-0.001
aF-0.001
aF-0.001
aF-0.001
aF-0.001
aF-0.001
aF-0.001
aF-0.001
aF-0.001
aF-0.001
aF-0.001
aF-0.001
aF-0.001
aF-0.001
aF-0.001
aF-0.001
aF-0.001
aF-0.001
aF-0.001
aF-0.001
aF-0.001
aF-0.001
aF-0.001
aF-0.001
aF-0.001
aF-0.001
aF-0.001
aF-0.001
aF-0.001
aF-0.001
aF-0.001
aF-0.001
aF-0.001
aF-0.001
aF-0.001
aF-0.001
aF-0.001
aF-0.001
aF-0.001
aF-0.001
aF-0.001
aF-0.001
aF-0.001
aF-0.001
aF-0.001
aF-0.001
aF-0.001
aF-0.001
aF-0.001
aF-0.001
aF-0.001
aF-0.001
aF-0.001
aa(lp187
F-0.001
aF-0.001
aF-0.001
aF-0.001
aF-0.001
aF-0.001
aF-0.001
aF-0.001
aF-0.001
aF-0.001
aF-0.001
aF-0.001
aF-0.001
aF-0.001
aF-0.001
aF-0.001
aF-0.001
aF-0.001
aF-0.001
aF-0.001
aF-0.001
aF-0.001
aF-0.001
aF-0.001
aF-0.001
aF-0.001
aF-0.001
aF-0.001
aF-0.001
aF-0.001
aF-0.001
aF-0.001
aF-0.001
aF-0.001
aF-0.001
aF-0.001
aF-0.001
aF-0.001
aF-0.001
aF-0.001
aF-0.001
aF-0.001
aF-0.001
aF-0.001
aF-0.001
aF-0.001
aF-0.001
aF-0.001
aF-0.001
aF-0.001
aF-0.001
aF-0.001
aF-0.001
aF-0.001
aF-0.001
aF-0.001
aF-0.001
aF-0.001
aF-0.001
aF-0.001
aF-0.001
aF-0.001
aF-0.001
aF-0.001
aF-0.001
aF-0.001
aF-0.001
aF-0.001
aF-0.001
aF-0.001
aF-0.001
aF-0.001
aF-0.001
aF-0.001
aF-0.001
aF-0.001
aF-0.001
aa(lp188
F-0.001
aF-0.001
aF-0.001
aF-0.001
aF-0.001
aF-0.001
aF-0.001
aF-0.001
aF-0.001
aF-0.001
aF-0.001
aF-0.001
aF-0.001
aF-0.001
aF-0.001
aF-0.001
aF-0.001
aF-0.001
aF-0.001
aF-0.001
aF-0.001
aF-0.001
aF-0.001
aF-0.001
aF-0.001
aF-0.001
aF-0.001
aF-0.001
aF-0.001
aF-0.001
aF-0.001
aF-0.001
aF-0.001
aF-0.001
aF-0.001
aF-0.001
aF-0.001
aF-0.001
aF-0.001
aF-0.001
aF-0.001
aF-0.001
aF-0.001
aF-0.001
aF-0.001
aF-0.001
aF-0.001
aF-0.001
aF-0.001
aF-0.001
aF-0.001
aF-0.001
aF-0.001
aF-0.001
aF-0.001
aF-0.001
aF-0.001
aF-0.001
aF-0.001
aF-0.001
aF-0.001
aF-0.001
aF-0.001
aa(lp189
F-0.001
aF-0.001
aF-0.001
aF-0.001
aF-0.001
aF-0.001
aF-0.001
aF-0.001
aF-0.001
aF-0.001
aF-0.001
aF-0.001
aF-0.001
aF-0.001
aF-0.001
aF-0.001
aF-0.001
aF-0.001
aF-0.001
aF-0.001
aF-0.001
aF-0.001
aF-0.001
aF-0.001
aF-0.001
aF-0.001
aF-0.001
aF-0.001
aF-0.001
aF-0.001
aF-0.001
aF-0.001
aF-0.001
aF-0.001
aF-0.001
aF-0.001
aF-0.001
aF-0.001
aF-0.001
aF-0.001
aF-0.001
aF-0.001
aF-0.001
aF-0.001
aF-0.001
aF-0.001
aF-0.001
aF-0.001
aF-0.001
aF-0.001
aF-0.001
aF-0.001
aF-0.001
aF-0.001
aF-0.001
aF-0.001
aF-0.001
aa(lp190
F-0.001
aF-0.001
aF-0.001
aF-0.001
aF-0.001
aF-0.001
aF-0.001
aF-0.001
aF-0.001
aF-0.001
aF-0.001
aF-0.001
aF-0.001
aF-0.001
aF-0.001
aF-0.001
aF-0.001
aF-0.001
aF-0.001
aF-0.001
aF-0.001
aF-0.001
aF-0.001
aF-0.001
aF-0.001
aF-0.001
aF-0.001
aF-0.001
aF-0.001
aF-0.001
aF-0.001
aF-0.001
aF-0.001
aF-0.001
aF-0.001
aF-0.001
aF-0.001
aF-0.001
aF-0.001
aF-0.001
aF-0.001
aF-0.001
aF-0.001
aF-0.001
aF-0.001
aF-0.001
aF-0.001
aF-0.001
aF-0.001
aF-0.001
aa(lp191
F-0.001
aF-0.001
aF-0.001
aF-0.001
aF-0.001
aF-0.001
aF-0.001
aF-0.001
aF-0.001
aF-0.001
aF-0.001
aF-0.001
aF-0.001
aF-0.001
aF-0.001
aF-0.001
aF-0.001
aF-0.001
aF-0.001
aF-0.001
aF-0.001
aF-0.001
aF-0.001
aF-0.001
aF-0.001
aF-0.001
aF-0.001
aF-0.001
aF-0.001
aF-0.001
aF-0.001
aF-0.001
aF-0.001
aF-0.001
aF-0.001
aF-0.001
aF-0.001
aF-0.001
aF-0.001
aF-0.001
aF-0.001
aF-0.001
aF-0.001
aF-0.001
aF-0.001
aF-0.001
aF-0.001
aF-0.001
aF-0.001
aF-0.001
aF-0.001
aF-0.001
aF-0.001
aF-0.001
aF-0.001
aF-0.001
aF-0.001
aF-0.001
aF-0.001
aF-0.001
aF-0.001
aF-0.001
aF-0.001
aF-0.001
aF-0.001
aa(lp192
F-0.001
aF-0.001
aF-0.001
aF-0.001
aF-0.001
aF-0.001
aF-0.001
aF-0.001
aF-0.001
aF-0.001
aF-0.001
aF-0.001
aF-0.001
aF-0.001
aF-0.001
aF-0.001
aF-0.001
aF-0.001
aF-0.001
aF-0.001
aF-0.001
aF-0.001
aF-0.001
aF-0.001
aF-0.001
aF-0.001
aF-0.001
aF-0.001
aF-0.001
aF-0.001
aF-0.001
aF-0.001
aF-0.001
aF-0.001
aF-0.001
aF-0.001
aF-0.001
aF-0.001
aF-0.001
aF-0.001
aF-0.001
aF-0.001
aF-0.001
aF-0.001
aF-0.001
aF-0.001
aF-0.001
aF-0.001
aF-0.001
aF-0.001
aF-0.001
aF-0.001
aF-0.001
aF-0.001
aF-0.001
aF-0.001
aF-0.001
aF-0.001
aF-0.001
aF-0.001
aF-0.001
aF-0.001
aF-0.001
aF-0.001
aF-0.001
aF-0.001
aF-0.001
aa(lp193
F-0.001
aF-0.001
aF-0.001
aF-0.001
aF-0.001
aF-0.001
aF-0.001
aF-0.001
aF-0.001
aF-0.001
aF-0.001
aF-0.001
aF-0.001
aF-0.001
aF-0.001
aF-0.001
aF-0.001
aF-0.001
aF-0.001
aF-0.001
aF-0.001
aF-0.001
aF-0.001
aF-0.001
aF-0.001
aF-0.001
aF-0.001
aF-0.001
aF-0.001
aF-0.001
aF-0.001
aF-0.001
aF-0.001
aF-0.001
aF-0.001
aF-0.001
aF-0.001
aF-0.001
aF-0.001
aF-0.001
aF-0.001
aF-0.001
aF-0.001
aF-0.001
aF-0.001
aF-0.001
aF-0.001
aF-0.001
aF-0.001
aF-0.001
aF-0.001
aF-0.001
aF-0.001
aF-0.001
aF-0.001
aF-0.001
aF-0.001
aF-0.001
aF-0.001
aF-0.001
aF-0.001
aF-0.001
aa(lp194
F-0.001
aF-0.001
aF-0.001
aF-0.001
aF-0.001
aF-0.001
aF-0.001
aF-0.001
aF-0.001
aF-0.001
aF-0.001
aF-0.001
aF-0.001
aF-0.001
aF-0.001
aF-0.001
aF-0.001
aF-0.001
aF-0.001
aF-0.001
aF-0.001
aF-0.001
aF-0.001
aF-0.001
aF-0.001
aF-0.001
aF-0.001
aF-0.001
aF-0.001
aF-0.001
aF-0.001
aF-0.001
aF-0.001
aF-0.001
aF-0.001
aF-0.001
aF-0.001
aF-0.001
aF-0.001
aF-0.001
aF-0.001
aF-0.001
aF-0.001
aF-0.001
aF-0.001
aF-0.001
aF-0.001
aF-0.001
aF-0.001
aF-0.001
aF-0.001
aF-0.001
aF-0.001
aF-0.001
aF-0.001
aF-0.001
aF-0.001
aF-0.001
aF-0.001
aF-0.001
aF-0.001
aF-0.001
aF-0.001
aF-0.001
aF-0.001
aF-0.001
aF-0.001
aF-0.001
aa(lp195
F-0.001
aF-0.001
aF-0.001
aF-0.001
aF-0.001
aF-0.001
aF-0.001
aF-0.001
aF-0.001
aF-0.001
aF-0.001
aF-0.001
aF-0.001
aF-0.001
aF-0.001
aF-0.001
aF-0.001
aF-0.001
aF-0.001
aF-0.001
aF-0.001
aF-0.001
aF-0.001
aF-0.001
aF-0.001
aF-0.001
aF-0.001
aF-0.001
aF-0.001
aF-0.001
aF-0.001
aF-0.001
aF-0.001
aF-0.001
aF-0.001
aF-0.001
aF-0.001
aF-0.001
aF-0.001
aF-0.001
aF-0.001
aF-0.001
aF-0.001
aF-0.001
aF-0.001
aF-0.001
aF-0.001
aF-0.001
aF-0.001
aF-0.001
aF-0.001
aF-0.001
aF-0.001
aF-0.001
aF-0.001
aF-0.001
aF-0.001
aF-0.001
aF-0.001
aF-0.001
aF-0.001
aF-0.001
aF-0.001
aF-0.001
aa(lp196
F-0.001
aF-0.001
aF-0.001
aF-0.001
aF-0.001
aF-0.001
aF-0.001
aF-0.001
aF-0.001
aF-0.001
aF-0.001
aF-0.001
aF-0.001
aF-0.001
aF-0.001
aF-0.001
aF-0.001
aF-0.001
aF-0.001
aF-0.001
aF-0.001
aF-0.001
aF-0.001
aF-0.001
aF-0.001
aF-0.001
aF-0.001
aF-0.001
aF-0.001
aF-0.001
aF-0.001
aF-0.001
aF-0.001
aF-0.001
aF-0.001
aF-0.001
aF-0.001
aF-0.001
aF-0.001
aF-0.001
aF-0.001
aF-0.001
aF-0.001
aF-0.001
aF-0.001
aF-0.001
aF-0.001
aF-0.001
aF-0.001
aa(lp197
F-0.001
aF-0.001
aF-0.001
aF-0.001
aF-0.001
aF-0.001
aF-0.001
aF-0.001
aF-0.001
aF-0.001
aF-0.001
aF-0.001
aF-0.001
aF-0.001
aF-0.001
aF-0.001
aF-0.001
aF-0.001
aF-0.001
aF-0.001
aF-0.001
aF-0.001
aF-0.001
aF-0.001
aF-0.001
aF-0.001
aF-0.001
aF-0.001
aF-0.001
aF-0.001
aF-0.001
aF-0.001
aF-0.001
aF-0.001
aF-0.001
aF-0.001
aF-0.001
aF-0.001
aF-0.001
aF-0.001
aF-0.001
aF-0.001
aF-0.001
aF-0.001
aF-0.001
aF-0.001
aF-0.001
aF-0.001
aF-0.001
aF-0.001
aF-0.001
aF-0.001
aF-0.001
aF-0.001
aF-0.001
aF-0.001
aF-0.001
aF-0.001
aF-0.001
aF-0.001
aF-0.001
aF-0.001
aF-0.001
aF-0.001
aF-0.001
aF-0.001
aa(lp198
F-0.001
aF-0.001
aF-0.001
aF-0.001
aF-0.001
aF-0.001
aF-0.001
aF-0.001
aF-0.001
aF-0.001
aF-0.001
aF-0.001
aF-0.001
aF-0.001
aF-0.001
aF-0.001
aF-0.001
aF-0.001
aF-0.001
aF-0.001
aF-0.001
aF-0.001
aF-0.001
aF-0.001
aF-0.001
aF-0.001
aF-0.001
aF-0.001
aF-0.001
aF-0.001
aF-0.001
aF-0.001
aF-0.001
aF-0.001
aF-0.001
aF-0.001
aF-0.001
aF-0.001
aF-0.001
aF-0.001
aF-0.001
aF-0.001
aF-0.001
aF-0.001
aF-0.001
aF-0.001
aF-0.001
aF-0.001
aF-0.001
aF-0.001
aF-0.001
aF-0.001
aF-0.001
aF-0.001
aF-0.001
aF-0.001
aF-0.001
aF-0.001
aF-0.001
aatp199
bsS'init_kwds'
p200
(dp201
sb.