ccopy_reg
_reconstructor
p0
(cbrian.connections.constructionmatrix
SparseConstructionMatrix
p1
c__builtin__
object
p2
Ntp3
Rp4
(dp5
S'rows'
p6
cnumpy.core.multiarray
_reconstruct
p7
(cnumpy
ndarray
p8
(I0
tp9
S'b'
p10
tp11
Rp12
(I1
(I80
tp13
cnumpy
dtype
p14
(S'O8'
p15
I0
I1
tp16
Rp17
(I3
S'|'
p18
NNNI-1
I-1
I63
tp19
bI00
(lp20
(lp21
I1
aI5
aI32
aI44
aI48
aI51
aI52
aI71
aI72
aI73
aI78
aI79
aI86
aI88
aI102
aI112
aI117
aI127
aI135
aI151
aI152
aI160
aI167
aI172
aI174
aI189
aI194
aI210
aI220
aI225
aI237
aI243
aI259
aI265
aI267
aI276
aI278
aI282
aI288
aI297
aI301
aI310
aI314
aI317
aI318
aI322
aI325
aI327
aI338
aI344
aI351
aI360
aI370
aI371
aI373
aI389
aI398
aI399
aa(lp22
I3
aI6
aI8
aI12
aI22
aI24
aI29
aI33
aI47
aI49
aI53
aI64
aI71
aI72
aI74
aI75
aI76
aI88
aI89
aI96
aI98
aI114
aI120
aI127
aI131
aI134
aI138
aI141
aI162
aI164
aI170
aI172
aI181
aI184
aI185
aI196
aI200
aI213
aI224
aI226
aI242
aI243
aI245
aI248
aI253
aI258
aI260
aI263
aI265
aI266
aI269
aI270
aI274
aI279
aI294
aI305
aI307
aI312
aI317
aI319
aI323
aI339
aI371
aI377
aI381
aI386
aI387
aI393
aI394
aI395
aa(lp23
I1
aI14
aI16
aI34
aI38
aI43
aI44
aI48
aI54
aI58
aI62
aI64
aI71
aI77
aI91
aI98
aI106
aI118
aI121
aI123
aI124
aI127
aI131
aI150
aI152
aI155
aI167
aI168
aI182
aI189
aI194
aI211
aI214
aI216
aI220
aI227
aI228
aI234
aI240
aI245
aI253
aI258
aI260
aI270
aI272
aI276
aI277
aI280
aI293
aI294
aI295
aI306
aI308
aI327
aI330
aI340
aI344
aI363
aI374
aI391
aa(lp24
I0
aI2
aI11
aI12
aI18
aI19
aI36
aI45
aI57
aI59
aI71
aI73
aI80
aI83
aI89
aI90
aI93
aI115
aI116
aI122
aI128
aI129
aI148
aI150
aI162
aI167
aI168
aI172
aI184
aI191
aI193
aI208
aI217
aI222
aI233
aI234
aI241
aI247
aI253
aI260
aI265
aI283
aI294
aI296
aI300
aI306
aI307
aI312
aI332
aI338
aI353
aI354
aI356
aI357
aI379
aI399
aa(lp25
I4
aI6
aI12
aI13
aI28
aI47
aI57
aI61
aI63
aI85
aI90
aI91
aI94
aI111
aI114
aI117
aI120
aI126
aI137
aI142
aI151
aI153
aI156
aI168
aI170
aI172
aI173
aI175
aI184
aI194
aI195
aI208
aI222
aI229
aI232
aI239
aI249
aI253
aI261
aI273
aI276
aI280
aI284
aI285
aI290
aI293
aI295
aI307
aI312
aI322
aI327
aI343
aI346
aI361
aI365
aI368
aI372
aI385
aI398
aa(lp26
I2
aI3
aI8
aI37
aI44
aI53
aI56
aI57
aI67
aI69
aI79
aI85
aI90
aI95
aI104
aI115
aI122
aI125
aI126
aI137
aI145
aI171
aI179
aI185
aI201
aI203
aI206
aI223
aI228
aI229
aI243
aI244
aI246
aI250
aI257
aI259
aI265
aI273
aI275
aI288
aI290
aI294
aI308
aI309
aI312
aI319
aI336
aI340
aI341
aI344
aI347
aI355
aI357
aI363
aI366
aI371
aI373
aI376
aI377
aI392
aI393
aa(lp27
I6
aI21
aI22
aI25
aI28
aI33
aI39
aI43
aI44
aI50
aI65
aI71
aI88
aI94
aI107
aI115
aI124
aI134
aI166
aI173
aI178
aI182
aI183
aI194
aI197
aI200
aI207
aI208
aI211
aI212
aI220
aI237
aI247
aI256
aI270
aI272
aI278
aI279
aI287
aI290
aI293
aI301
aI322
aI329
aI345
aI352
aI359
aI369
aI380
aI381
aI385
aI389
aI390
aI391
aa(lp28
I7
aI9
aI20
aI25
aI40
aI57
aI58
aI61
aI76
aI77
aI80
aI81
aI87
aI102
aI103
aI104
aI107
aI110
aI122
aI133
aI134
aI149
aI161
aI165
aI175
aI177
aI179
aI182
aI185
aI189
aI191
aI195
aI209
aI212
aI216
aI234
aI247
aI258
aI259
aI264
aI281
aI301
aI303
aI307
aI308
aI309
aI315
aI316
aI322
aI324
aI346
aI348
aI350
aI370
aI378
aI379
aI386
aI397
aa(lp29
I13
aI17
aI20
aI27
aI41
aI52
aI58
aI59
aI67
aI71
aI74
aI75
aI81
aI93
aI95
aI116
aI117
aI124
aI131
aI134
aI149
aI160
aI165
aI168
aI172
aI177
aI183
aI184
aI187
aI198
aI203
aI210
aI213
aI218
aI221
aI223
aI229
aI232
aI235
aI238
aI241
aI252
aI260
aI265
aI274
aI275
aI287
aI302
aI305
aI318
aI320
aI328
aI329
aI330
aI337
aI338
aI345
aI347
aI359
aI386
aI390
aI396
aI399
aa(lp30
I7
aI23
aI35
aI50
aI55
aI66
aI70
aI75
aI97
aI98
aI128
aI130
aI133
aI140
aI150
aI153
aI155
aI157
aI180
aI195
aI201
aI203
aI209
aI218
aI225
aI228
aI229
aI248
aI260
aI265
aI276
aI277
aI297
aI301
aI310
aI317
aI323
aI325
aI326
aI333
aI338
aI341
aI345
aI358
aI359
aI362
aI365
aI366
aI368
aI386
aI391
aa(lp31
I10
aI16
aI31
aI43
aI45
aI63
aI73
aI84
aI89
aI94
aI103
aI114
aI124
aI131
aI132
aI135
aI137
aI138
aI145
aI147
aI148
aI154
aI156
aI157
aI163
aI171
aI185
aI189
aI196
aI197
aI203
aI211
aI220
aI221
aI225
aI226
aI228
aI229
aI239
aI243
aI247
aI253
aI254
aI264
aI267
aI276
aI277
aI280
aI284
aI286
aI287
aI296
aI301
aI307
aI319
aI324
aI325
aI328
aI331
aI334
aI335
aI336
aI342
aI347
aI348
aI349
aI359
aI364
aI366
aI367
aI375
aI378
aI381
aa(lp32
I1
aI6
aI7
aI9
aI23
aI24
aI27
aI29
aI34
aI41
aI43
aI54
aI79
aI82
aI92
aI96
aI101
aI109
aI110
aI111
aI126
aI144
aI146
aI157
aI174
aI180
aI183
aI185
aI188
aI194
aI198
aI200
aI201
aI204
aI211
aI212
aI226
aI230
aI241
aI247
aI251
aI254
aI256
aI258
aI259
aI266
aI279
aI299
aI308
aI316
aI320
aI323
aI338
aI347
aI357
aI364
aI379
aI396
aa(lp33
I4
aI14
aI25
aI27
aI34
aI35
aI39
aI43
aI48
aI53
aI55
aI74
aI77
aI83
aI88
aI89
aI97
aI111
aI113
aI114
aI115
aI124
aI126
aI131
aI146
aI147
aI149
aI156
aI161
aI168
aI169
aI190
aI194
aI196
aI206
aI213
aI215
aI216
aI217
aI219
aI232
aI233
aI240
aI243
aI251
aI253
aI254
aI258
aI259
aI260
aI263
aI265
aI271
aI273
aI279
aI284
aI299
aI319
aI325
aI329
aI338
aI345
aI359
aI360
aI365
aI377
aI381
aI388
aa(lp34
I14
aI37
aI41
aI47
aI49
aI67
aI68
aI71
aI82
aI106
aI116
aI118
aI124
aI126
aI131
aI134
aI139
aI146
aI154
aI166
aI168
aI199
aI209
aI213
aI224
aI233
aI238
aI241
aI249
aI251
aI253
aI255
aI258
aI260
aI273
aI274
aI275
aI277
aI296
aI303
aI310
aI313
aI318
aI322
aI323
aI325
aI341
aI348
aI354
aI358
aI372
aI374
aI384
aI391
aI399
aa(lp35
I27
aI49
aI56
aI64
aI65
aI72
aI74
aI90
aI93
aI101
aI103
aI104
aI110
aI120
aI135
aI138
aI143
aI146
aI151
aI152
aI160
aI161
aI164
aI175
aI176
aI178
aI179
aI187
aI189
aI192
aI196
aI198
aI212
aI234
aI235
aI243
aI253
aI258
aI259
aI264
aI270
aI289
aI310
aI320
aI327
aI355
aI366
aI385
aI394
aI397
aa(lp36
I2
aI31
aI43
aI51
aI52
aI53
aI61
aI62
aI71
aI82
aI85
aI96
aI103
aI108
aI115
aI117
aI122
aI126
aI128
aI130
aI139
aI145
aI159
aI207
aI228
aI237
aI245
aI248
aI259
aI261
aI263
aI278
aI287
aI288
aI309
aI319
aI320
aI327
aI334
aI338
aI348
aI359
aI364
aI369
aI381
aI383
aI385
aI389
aa(lp37
I2
aI10
aI22
aI28
aI31
aI33
aI35
aI49
aI52
aI63
aI73
aI80
aI83
aI88
aI95
aI108
aI110
aI123
aI130
aI138
aI145
aI150
aI164
aI166
aI180
aI183
aI186
aI191
aI196
aI208
aI215
aI226
aI232
aI255
aI257
aI259
aI265
aI269
aI273
aI274
aI279
aI282
aI284
aI285
aI300
aI310
aI315
aI328
aI342
aI345
aI354
aI356
aI361
aI370
aI372
aI381
aI385
aI392
aa(lp38
I6
aI14
aI15
aI20
aI21
aI32
aI33
aI35
aI40
aI47
aI48
aI56
aI66
aI89
aI90
aI99
aI106
aI107
aI108
aI116
aI117
aI126
aI142
aI145
aI150
aI159
aI166
aI173
aI174
aI185
aI186
aI192
aI196
aI199
aI216
aI227
aI228
aI239
aI256
aI257
aI267
aI269
aI277
aI297
aI299
aI313
aI315
aI323
aI325
aI337
aI341
aI343
aI350
aI356
aI362
aI364
aI376
aI380
aI382
aI385
aI387
aI389
aa(lp39
I16
aI18
aI30
aI31
aI33
aI44
aI51
aI57
aI66
aI76
aI80
aI82
aI99
aI110
aI115
aI123
aI125
aI129
aI130
aI131
aI137
aI141
aI142
aI143
aI155
aI156
aI160
aI164
aI177
aI184
aI192
aI195
aI198
aI206
aI214
aI219
aI223
aI224
aI225
aI228
aI245
aI249
aI253
aI257
aI274
aI279
aI281
aI291
aI300
aI302
aI303
aI304
aI315
aI340
aI343
aI353
aI356
aI364
aI366
aI368
aI385
aI388
aI390
aI392
aI394
aa(lp40
I3
aI10
aI12
aI30
aI44
aI50
aI51
aI58
aI60
aI74
aI86
aI89
aI92
aI95
aI97
aI102
aI107
aI111
aI118
aI119
aI129
aI130
aI134
aI141
aI145
aI149
aI153
aI170
aI177
aI178
aI185
aI194
aI211
aI215
aI224
aI233
aI242
aI251
aI253
aI262
aI266
aI268
aI274
aI275
aI277
aI282
aI296
aI310
aI327
aI346
aI352
aI353
aI365
aI378
aI380
aI385
aI387
aI389
aI396
aI399
aa(lp41
I9
aI11
aI12
aI14
aI16
aI29
aI48
aI49
aI51
aI55
aI60
aI68
aI82
aI88
aI97
aI102
aI103
aI119
aI122
aI131
aI142
aI149
aI157
aI158
aI171
aI174
aI178
aI185
aI198
aI217
aI228
aI235
aI242
aI243
aI246
aI254
aI264
aI279
aI280
aI284
aI300
aI303
aI314
aI315
aI321
aI327
aI335
aI356
aI361
aI368
aI373
aI380
aI383
aI391
aI399
aa(lp42
I7
aI20
aI35
aI38
aI60
aI61
aI75
aI82
aI93
aI95
aI102
aI106
aI129
aI134
aI138
aI139
aI161
aI166
aI177
aI187
aI190
aI208
aI219
aI220
aI222
aI232
aI235
aI236
aI240
aI242
aI243
aI250
aI268
aI272
aI281
aI297
aI299
aI302
aI303
aI309
aI311
aI320
aI321
aI330
aI334
aI354
aI364
aI381
aI389
aI399
aa(lp43
I0
aI15
aI16
aI17
aI28
aI36
aI39
aI56
aI60
aI63
aI66
aI68
aI93
aI98
aI108
aI112
aI127
aI132
aI134
aI143
aI150
aI151
aI153
aI162
aI167
aI180
aI184
aI194
aI206
aI208
aI210
aI215
aI219
aI225
aI235
aI255
aI264
aI265
aI274
aI277
aI282
aI298
aI309
aI311
aI319
aI333
aI343
aI344
aI352
aI355
aI358
aI383
aI391
aa(lp44
I2
aI5
aI27
aI31
aI41
aI42
aI45
aI51
aI53
aI68
aI73
aI75
aI82
aI110
aI113
aI120
aI121
aI125
aI129
aI136
aI146
aI152
aI161
aI163
aI164
aI165
aI173
aI191
aI206
aI210
aI211
aI213
aI214
aI231
aI232
aI233
aI236
aI248
aI283
aI299
aI300
aI318
aI327
aI328
aI329
aI338
aI349
aI355
aI370
aI372
aI374
aI387
aI397
aI399
aa(lp45
I3
aI8
aI11
aI16
aI20
aI21
aI23
aI45
aI57
aI66
aI67
aI69
aI73
aI75
aI93
aI94
aI105
aI107
aI115
aI126
aI130
aI136
aI143
aI150
aI152
aI160
aI163
aI174
aI177
aI179
aI185
aI207
aI208
aI219
aI221
aI227
aI235
aI247
aI255
aI257
aI259
aI266
aI274
aI279
aI282
aI293
aI303
aI323
aI332
aI339
aI344
aI346
aI368
aI371
aI372
aI375
aI376
aI380
aI381
aI383
aI386
aI395
aI396
aa(lp46
I8
aI13
aI16
aI39
aI68
aI78
aI82
aI83
aI92
aI107
aI111
aI114
aI132
aI135
aI140
aI143
aI144
aI177
aI181
aI182
aI184
aI203
aI205
aI208
aI209
aI210
aI213
aI214
aI223
aI225
aI230
aI236
aI240
aI244
aI248
aI261
aI279
aI280
aI290
aI303
aI312
aI327
aI331
aI336
aI346
aI357
aI361
aI362
aI363
aI367
aI369
aI380
aa(lp47
I3
aI4
aI6
aI11
aI14
aI23
aI26
aI27
aI28
aI29
aI37
aI49
aI66
aI78
aI86
aI88
aI93
aI112
aI115
aI117
aI127
aI128
aI131
aI143
aI145
aI146
aI152
aI163
aI175
aI176
aI196
aI199
aI204
aI207
aI211
aI218
aI232
aI238
aI245
aI249
aI256
aI265
aI275
aI286
aI293
aI297
aI298
aI306
aI315
aI320
aI328
aI329
aI332
aI338
aI339
aI344
aI345
aI346
aI351
aI358
aI360
aI380
aI382
aI384
aI386
aI395
aI396
aa(lp48
I8
aI14
aI18
aI31
aI42
aI44
aI52
aI54
aI56
aI58
aI61
aI62
aI63
aI77
aI95
aI96
aI98
aI100
aI102
aI104
aI109
aI112
aI135
aI136
aI148
aI151
aI162
aI173
aI179
aI183
aI189
aI191
aI195
aI197
aI199
aI205
aI217
aI221
aI230
aI239
aI255
aI260
aI273
aI284
aI298
aI302
aI318
aI323
aI325
aI338
aI340
aI350
aI351
aI352
aI357
aI361
aI371
aI378
aI381
aI382
aa(lp49
I1
aI4
aI5
aI15
aI31
aI34
aI36
aI40
aI57
aI59
aI67
aI68
aI69
aI78
aI88
aI89
aI99
aI100
aI106
aI126
aI130
aI157
aI174
aI183
aI184
aI193
aI203
aI204
aI206
aI210
aI238
aI241
aI243
aI265
aI269
aI275
aI279
aI304
aI305
aI307
aI315
aI323
aI325
aI326
aI331
aI337
aI342
aI360
aI390
aI398
aI399
aa(lp50
I6
aI22
aI49
aI50
aI52
aI54
aI60
aI64
aI69
aI79
aI91
aI94
aI97
aI109
aI121
aI124
aI135
aI139
aI151
aI152
aI162
aI163
aI166
aI173
aI178
aI179
aI180
aI183
aI194
aI195
aI200
aI204
aI217
aI220
aI221
aI225
aI230
aI234
aI236
aI239
aI255
aI259
aI266
aI267
aI269
aI278
aI304
aI307
aI315
aI316
aI328
aI339
aI348
aI359
aI360
aI362
aI369
aI372
aI374
aI390
aI396
aI397
aa(lp51
I5
aI8
aI15
aI17
aI20
aI29
aI37
aI43
aI56
aI59
aI60
aI61
aI66
aI81
aI82
aI93
aI111
aI124
aI130
aI133
aI135
aI143
aI144
aI149
aI150
aI155
aI163
aI173
aI181
aI196
aI198
aI201
aI202
aI206
aI215
aI234
aI239
aI241
aI245
aI249
aI255
aI256
aI265
aI287
aI292
aI295
aI308
aI317
aI328
aI330
aI333
aI340
aI341
aI354
aI360
aI376
aI389
aI394
aa(lp52
I2
aI4
aI19
aI22
aI24
aI31
aI37
aI53
aI93
aI96
aI97
aI99
aI106
aI112
aI121
aI128
aI137
aI151
aI155
aI157
aI165
aI168
aI172
aI178
aI183
aI198
aI199
aI201
aI205
aI219
aI223
aI224
aI231
aI232
aI241
aI243
aI246
aI256
aI264
aI270
aI273
aI281
aI285
aI288
aI290
aI293
aI294
aI298
aI309
aI328
aI334
aI348
aI355
aI375
aI383
aI388
aI395
aa(lp53
I1
aI3
aI5
aI6
aI9
aI11
aI14
aI26
aI27
aI29
aI34
aI35
aI40
aI41
aI59
aI60
aI66
aI72
aI74
aI75
aI78
aI95
aI105
aI116
aI117
aI128
aI130
aI133
aI153
aI156
aI166
aI175
aI194
aI195
aI198
aI203
aI204
aI207
aI209
aI216
aI218
aI221
aI233
aI234
aI235
aI250
aI258
aI262
aI264
aI269
aI272
aI276
aI305
aI307
aI322
aI339
aI340
aI343
aI350
aI369
aI377
aI379
aI388
aI392
aI393
aI395
aI397
aa(lp54
I5
aI11
aI13
aI16
aI17
aI26
aI34
aI38
aI42
aI65
aI66
aI71
aI72
aI85
aI88
aI96
aI97
aI103
aI104
aI109
aI125
aI128
aI144
aI151
aI152
aI156
aI188
aI197
aI210
aI219
aI239
aI241
aI246
aI260
aI276
aI284
aI291
aI294
aI300
aI302
aI309
aI316
aI349
aI354
aI361
aI373
aI387
aI396
aI398
aa(lp55
I8
aI18
aI19
aI20
aI24
aI33
aI41
aI54
aI56
aI57
aI67
aI78
aI96
aI111
aI123
aI126
aI134
aI139
aI140
aI143
aI152
aI170
aI171
aI172
aI182
aI194
aI201
aI210
aI228
aI245
aI246
aI251
aI258
aI264
aI271
aI273
aI276
aI285
aI286
aI291
aI302
aI319
aI324
aI331
aI334
aI337
aI350
aI359
aI363
aI372
aI383
aI388
aI391
aI392
aI398
aa(lp56
I7
aI17
aI18
aI21
aI31
aI33
aI39
aI43
aI60
aI63
aI69
aI70
aI71
aI77
aI82
aI83
aI96
aI103
aI111
aI129
aI146
aI151
aI154
aI162
aI170
aI177
aI179
aI180
aI181
aI188
aI193
aI194
aI198
aI202
aI203
aI209
aI225
aI228
aI233
aI236
aI239
aI258
aI267
aI270
aI272
aI274
aI278
aI281
aI295
aI301
aI302
aI309
aI312
aI318
aI325
aI327
aI332
aI339
aI354
aI359
aI369
aI379
aI381
aI391
aI393
aI394
aI395
aa(lp57
I0
aI4
aI8
aI18
aI44
aI53
aI56
aI64
aI70
aI72
aI79
aI93
aI94
aI98
aI128
aI142
aI143
aI152
aI159
aI160
aI165
aI182
aI192
aI194
aI199
aI200
aI214
aI218
aI224
aI234
aI237
aI259
aI264
aI301
aI315
aI325
aI327
aI329
aI333
aI336
aI337
aI363
aI368
aI370
aI380
aI385
aI386
aI399
aa(lp58
I3
aI9
aI10
aI12
aI25
aI32
aI39
aI47
aI49
aI53
aI57
aI59
aI64
aI65
aI104
aI107
aI113
aI118
aI120
aI131
aI151
aI157
aI161
aI173
aI176
aI177
aI193
aI199
aI205
aI212
aI223
aI229
aI240
aI243
aI245
aI257
aI266
aI267
aI275
aI282
aI283
aI286
aI296
aI300
aI306
aI307
aI322
aI323
aI333
aI334
aI337
aI346
aI347
aI349
aI354
aI358
aI378
aa(lp59
I5
aI14
aI38
aI42
aI57
aI59
aI60
aI64
aI67
aI70
aI79
aI83
aI84
aI90
aI93
aI96
aI104
aI111
aI113
aI115
aI117
aI125
aI126
aI131
aI136
aI157
aI160
aI162
aI187
aI195
aI207
aI210
aI217
aI247
aI250
aI252
aI259
aI268
aI282
aI299
aI309
aI318
aI322
aI336
aI341
aI346
aI359
aI362
aI365
aI371
aI396
aa(lp60
I14
aI17
aI30
aI33
aI49
aI50
aI52
aI60
aI64
aI69
aI81
aI83
aI85
aI89
aI92
aI105
aI108
aI121
aI122
aI127
aI140
aI142
aI143
aI147
aI157
aI159
aI161
aI162
aI170
aI172
aI175
aI178
aI182
aI187
aI188
aI189
aI194
aI203
aI215
aI224
aI229
aI232
aI236
aI241
aI243
aI245
aI252
aI258
aI259
aI265
aI269
aI274
aI275
aI276
aI277
aI278
aI280
aI281
aI288
aI293
aI304
aI305
aI308
aI310
aI314
aI317
aI320
aI330
aI331
aI333
aI343
aI344
aI359
aI360
aI366
aI367
aI374
aI376
aI382
aI395
aa(lp61
I3
aI9
aI16
aI20
aI21
aI26
aI32
aI34
aI42
aI47
aI51
aI70
aI73
aI82
aI109
aI117
aI122
aI130
aI131
aI134
aI136
aI144
aI145
aI158
aI168
aI188
aI194
aI196
aI203
aI205
aI214
aI221
aI222
aI223
aI226
aI230
aI238
aI246
aI249
aI256
aI268
aI271
aI273
aI276
aI285
aI296
aI304
aI307
aI309
aI311
aI315
aI329
aI338
aI341
aI357
aI358
aI360
aI364
aI369
aI374
aI383
aI386
aI389
aa(lp62
I0
aI2
aI5
aI8
aI20
aI25
aI31
aI37
aI49
aI53
aI54
aI56
aI69
aI73
aI82
aI84
aI90
aI112
aI117
aI122
aI138
aI141
aI143
aI145
aI148
aI167
aI169
aI173
aI178
aI189
aI223
aI227
aI238
aI241
aI243
aI247
aI250
aI255
aI259
aI262
aI265
aI270
aI274
aI277
aI280
aI286
aI287
aI294
aI313
aI320
aI321
aI325
aI328
aI332
aI336
aI342
aI354
aI364
aI367
aI370
aI371
aI373
aI380
aI381
aI398
aa(lp63
I0
aI7
aI9
aI18
aI23
aI28
aI31
aI39
aI41
aI48
aI51
aI53
aI58
aI60
aI68
aI72
aI73
aI87
aI89
aI98
aI107
aI111
aI117
aI119
aI135
aI148
aI159
aI163
aI166
aI170
aI174
aI175
aI179
aI180
aI181
aI183
aI208
aI216
aI217
aI218
aI220
aI221
aI227
aI230
aI233
aI237
aI247
aI252
aI257
aI258
aI259
aI271
aI277
aI279
aI284
aI292
aI310
aI311
aI319
aI326
aI338
aI342
aI344
aI346
aI351
aI364
aI374
aI377
aI386
aI387
aI393
aa(lp64
I7
aI9
aI10
aI14
aI19
aI22
aI25
aI26
aI33
aI37
aI49
aI69
aI72
aI75
aI84
aI92
aI94
aI97
aI103
aI107
aI116
aI120
aI128
aI135
aI136
aI143
aI146
aI149
aI156
aI163
aI165
aI168
aI172
aI175
aI186
aI196
aI212
aI213
aI218
aI220
aI231
aI234
aI239
aI260
aI264
aI269
aI272
aI274
aI277
aI280
aI287
aI311
aI315
aI326
aI327
aI345
aI353
aI363
aI366
aI367
aI374
aI375
aI384
aI386
aI390
aI394
aI396
aa(lp65
I5
aI8
aI13
aI14
aI26
aI28
aI35
aI41
aI45
aI47
aI62
aI65
aI67
aI74
aI79
aI110
aI115
aI116
aI127
aI129
aI135
aI145
aI148
aI156
aI159
aI166
aI173
aI177
aI185
aI190
aI194
aI198
aI202
aI203
aI207
aI214
aI236
aI245
aI246
aI252
aI258
aI259
aI266
aI267
aI276
aI278
aI285
aI290
aI294
aI298
aI299
aI301
aI324
aI325
aI336
aI337
aI340
aI341
aI357
aI377
aI379
aI380
aI390
aI397
aa(lp66
I15
aI29
aI31
aI32
aI46
aI56
aI57
aI59
aI62
aI84
aI89
aI95
aI101
aI112
aI125
aI137
aI151
aI154
aI156
aI167
aI169
aI178
aI183
aI185
aI198
aI209
aI211
aI233
aI244
aI246
aI247
aI258
aI269
aI280
aI286
aI292
aI298
aI321
aI327
aI329
aI334
aI342
aI354
aI355
aI376
aI377
aI382
aI384
aa(lp67
I3
aI11
aI15
aI19
aI20
aI27
aI39
aI48
aI54
aI67
aI75
aI79
aI90
aI114
aI171
aI178
aI180
aI183
aI216
aI225
aI226
aI231
aI244
aI251
aI261
aI262
aI272
aI276
aI286
aI292
aI295
aI308
aI318
aI331
aI335
aI338
aI364
aI370
aI372
aI373
aI374
aI375
aI376
aI378
aI380
aI382
aI390
aI395
aI399
aa(lp68
I0
aI3
aI5
aI16
aI30
aI33
aI42
aI50
aI55
aI63
aI68
aI71
aI72
aI81
aI88
aI95
aI102
aI110
aI121
aI147
aI149
aI154
aI160
aI161
aI169
aI177
aI183
aI184
aI187
aI192
aI194
aI208
aI241
aI253
aI256
aI259
aI265
aI269
aI273
aI289
aI311
aI324
aI325
aI327
aI328
aI332
aI344
aI367
aI371
aI372
aI374
aI382
aI386
aI393
aa(lp69
I3
aI23
aI24
aI31
aI33
aI34
aI35
aI47
aI69
aI77
aI80
aI109
aI111
aI123
aI128
aI131
aI133
aI137
aI139
aI159
aI162
aI167
aI171
aI178
aI181
aI187
aI199
aI201
aI211
aI223
aI224
aI237
aI251
aI282
aI285
aI288
aI292
aI293
aI300
aI302
aI306
aI312
aI314
aI316
aI317
aI318
aI319
aI327
aI334
aI336
aI338
aI351
aI352
aI368
aI385
aI387
aI388
aI397
aa(lp70
I18
aI19
aI28
aI29
aI36
aI52
aI57
aI58
aI60
aI70
aI73
aI79
aI80
aI83
aI89
aI91
aI93
aI99
aI100
aI107
aI108
aI113
aI119
aI129
aI130
aI132
aI141
aI153
aI164
aI190
aI193
aI195
aI200
aI204
aI213
aI215
aI217
aI225
aI226
aI231
aI257
aI299
aI303
aI306
aI315
aI317
aI345
aI352
aI358
aI376
aI388
aa(lp71
I0
aI5
aI11
aI22
aI23
aI29
aI33
aI63
aI75
aI80
aI81
aI88
aI101
aI102
aI106
aI109
aI118
aI122
aI123
aI130
aI154
aI155
aI171
aI175
aI179
aI184
aI190
aI207
aI236
aI257
aI263
aI264
aI265
aI266
aI271
aI304
aI305
aI312
aI321
aI338
aI343
aI362
aI369
aI375
aI377
aI378
aI379
aI389
aI391
aa(lp72
I8
aI11
aI32
aI45
aI46
aI52
aI62
aI66
aI70
aI78
aI79
aI87
aI91
aI92
aI113
aI114
aI121
aI133
aI136
aI141
aI142
aI143
aI149
aI159
aI165
aI193
aI197
aI208
aI211
aI213
aI215
aI216
aI220
aI227
aI238
aI245
aI250
aI267
aI268
aI276
aI279
aI308
aI313
aI326
aI337
aI338
aI340
aI349
aI351
aI359
aI360
aI371
aI375
aI392
aa(lp73
I0
aI2
aI4
aI16
aI27
aI32
aI38
aI48
aI52
aI54
aI67
aI81
aI88
aI96
aI105
aI138
aI141
aI142
aI159
aI173
aI191
aI218
aI219
aI220
aI222
aI239
aI244
aI245
aI248
aI260
aI261
aI273
aI290
aI295
aI302
aI303
aI305
aI313
aI337
aI342
aI346
aI350
aI354
aI355
aI357
aI358
aI359
aI369
aI375
aI381
aI389
aI391
aI398
aa(lp74
I3
aI11
aI13
aI19
aI21
aI24
aI28
aI37
aI41
aI42
aI48
aI49
aI56
aI63
aI80
aI87
aI90
aI94
aI105
aI126
aI128
aI129
aI142
aI144
aI145
aI153
aI159
aI162
aI176
aI181
aI193
aI199
aI200
aI203
aI207
aI214
aI235
aI237
aI238
aI252
aI254
aI255
aI259
aI260
aI269
aI270
aI271
aI289
aI308
aI312
aI325
aI332
aI334
aI346
aI348
aI374
aI377
aI378
aI379
aI393
aI398
aI399
aa(lp75
I2
aI11
aI13
aI18
aI22
aI24
aI37
aI42
aI43
aI54
aI57
aI60
aI71
aI79
aI81
aI85
aI91
aI93
aI106
aI108
aI111
aI114
aI117
aI124
aI126
aI135
aI136
aI137
aI146
aI154
aI155
aI162
aI166
aI171
aI189
aI191
aI195
aI198
aI200
aI204
aI231
aI234
aI240
aI255
aI266
aI267
aI274
aI278
aI285
aI288
aI289
aI295
aI302
aI303
aI307
aI311
aI312
aI316
aI319
aI325
aI326
aI329
aI334
aI338
aI339
aI357
aI363
aI364
aI366
aI369
aI372
aI374
aI377
aI385
aI387
aI391
aI396
aa(lp76
I16
aI18
aI25
aI28
aI35
aI38
aI47
aI54
aI66
aI69
aI73
aI74
aI75
aI78
aI79
aI81
aI84
aI87
aI88
aI90
aI122
aI131
aI133
aI142
aI154
aI158
aI162
aI164
aI166
aI193
aI195
aI201
aI214
aI224
aI237
aI238
aI250
aI256
aI261
aI273
aI288
aI289
aI290
aI294
aI298
aI303
aI307
aI313
aI325
aI342
aI352
aI353
aI362
aI366
aI368
aI374
aI391
aa(lp77
I4
aI18
aI27
aI29
aI38
aI40
aI41
aI51
aI63
aI65
aI76
aI81
aI84
aI86
aI92
aI96
aI106
aI112
aI120
aI126
aI129
aI138
aI145
aI146
aI163
aI176
aI181
aI187
aI199
aI201
aI202
aI213
aI222
aI251
aI253
aI281
aI282
aI284
aI293
aI297
aI335
aI340
aI354
aI360
aI362
aI367
aI374
aI389
aI393
aI397
aa(lp78
I2
aI7
aI13
aI16
aI21
aI30
aI36
aI44
aI52
aI54
aI59
aI60
aI62
aI63
aI67
aI75
aI96
aI113
aI131
aI144
aI163
aI164
aI169
aI181
aI182
aI184
aI185
aI196
aI198
aI202
aI207
aI233
aI236
aI240
aI249
aI252
aI254
aI265
aI272
aI273
aI291
aI297
aI301
aI310
aI327
aI340
aI356
aI357
aI358
aI359
aI361
aI365
aI366
aI371
aI377
aI380
aI385
aI388
aI397
aa(lp79
I4
aI5
aI21
aI23
aI24
aI35
aI41
aI48
aI49
aI57
aI64
aI66
aI77
aI88
aI118
aI119
aI123
aI127
aI136
aI142
aI145
aI148
aI160
aI172
aI173
aI177
aI184
aI214
aI234
aI240
aI243
aI251
aI252
aI255
aI261
aI262
aI267
aI275
aI276
aI277
aI280
aI288
aI294
aI297
aI309
aI312
aI314
aI329
aI336
aI340
aI343
aI344
aI350
aI353
aI357
aI359
aI363
aI364
aI367
aI373
aI375
aI382
aI394
aI398
aa(lp80
I2
aI12
aI13
aI33
aI34
aI49
aI51
aI62
aI72
aI87
aI89
aI93
aI94
aI96
aI100
aI103
aI110
aI112
aI120
aI121
aI140
aI146
aI151
aI153
aI158
aI160
aI168
aI178
aI188
aI190
aI197
aI200
aI215
aI218
aI236
aI239
aI241
aI244
aI257
aI263
aI264
aI276
aI281
aI289
aI304
aI306
aI308
aI314
aI321
aI331
aI337
aI340
aI344
aI347
aI366
aI369
aI371
aI376
aI382
aI389
aa(lp81
I10
aI13
aI40
aI44
aI47
aI48
aI57
aI60
aI64
aI65
aI68
aI75
aI80
aI90
aI92
aI98
aI102
aI105
aI111
aI128
aI139
aI145
aI152
aI154
aI164
aI183
aI203
aI208
aI217
aI227
aI228
aI236
aI239
aI241
aI243
aI246
aI252
aI253
aI264
aI267
aI269
aI281
aI284
aI292
aI300
aI301
aI315
aI316
aI321
aI322
aI328
aI336
aI346
aI352
aI353
aI369
aI370
aI373
aI380
aI382
aI384
aI385
aI394
aa(lp82
I7
aI8
aI24
aI45
aI49
aI53
aI56
aI57
aI60
aI81
aI86
aI101
aI117
aI126
aI136
aI137
aI145
aI147
aI166
aI167
aI168
aI173
aI184
aI187
aI215
aI220
aI226
aI232
aI238
aI240
aI246
aI253
aI254
aI258
aI261
aI262
aI279
aI285
aI292
aI302
aI306
aI316
aI318
aI321
aI327
aI339
aI345
aI365
aI374
aI376
aI387
aI388
aI394
aa(lp83
I7
aI34
aI36
aI43
aI44
aI98
aI114
aI123
aI134
aI137
aI146
aI151
aI165
aI169
aI176
aI185
aI196
aI198
aI199
aI202
aI216
aI219
aI221
aI226
aI229
aI239
aI242
aI246
aI248
aI259
aI260
aI264
aI268
aI269
aI281
aI288
aI297
aI301
aI315
aI320
aI323
aI334
aI347
aI359
aI374
aI382
aI387
aa(lp84
I0
aI36
aI47
aI63
aI68
aI81
aI93
aI95
aI102
aI115
aI116
aI122
aI123
aI127
aI136
aI148
aI157
aI168
aI174
aI204
aI205
aI210
aI217
aI218
aI226
aI229
aI239
aI249
aI250
aI252
aI253
aI254
aI256
aI259
aI260
aI268
aI272
aI275
aI277
aI281
aI287
aI291
aI300
aI301
aI308
aI311
aI314
aI332
aI335
aI346
aI349
aI351
aI356
aI366
aI368
aI382
aI388
aI390
aI392
aI398
aa(lp85
I8
aI15
aI17
aI19
aI20
aI21
aI25
aI30
aI42
aI43
aI44
aI48
aI49
aI52
aI54
aI70
aI85
aI90
aI94
aI96
aI98
aI106
aI111
aI112
aI116
aI119
aI123
aI125
aI126
aI134
aI142
aI144
aI146
aI160
aI163
aI168
aI169
aI178
aI179
aI182
aI185
aI187
aI191
aI192
aI206
aI211
aI223
aI228
aI232
aI235
aI246
aI252
aI260
aI267
aI268
aI283
aI287
aI289
aI290
aI303
aI319
aI321
aI324
aI337
aI340
aI346
aI357
aI362
aI368
aI373
aI381
aI385
aI392
aI394
aI396
aa(lp86
I1
aI14
aI16
aI47
aI55
aI61
aI69
aI78
aI92
aI94
aI95
aI106
aI126
aI128
aI134
aI156
aI157
aI161
aI173
aI176
aI185
aI190
aI201
aI204
aI213
aI222
aI244
aI246
aI263
aI266
aI295
aI311
aI318
aI325
aI335
aI339
aI341
aI357
aI362
aI375
aI381
aI382
aI395
aI397
aI398
aa(lp87
I0
aI4
aI9
aI10
aI14
aI18
aI28
aI30
aI36
aI41
aI49
aI52
aI54
aI56
aI61
aI67
aI68
aI76
aI77
aI78
aI86
aI94
aI100
aI105
aI109
aI115
aI120
aI123
aI150
aI154
aI160
aI161
aI171
aI189
aI190
aI196
aI197
aI204
aI205
aI223
aI241
aI243
aI246
aI261
aI263
aI272
aI280
aI282
aI287
aI294
aI308
aI321
aI323
aI330
aI333
aI343
aI350
aI364
aI368
aI373
aI384
aI386
aa(lp88
I9
aI12
aI16
aI18
aI25
aI26
aI29
aI37
aI39
aI46
aI56
aI59
aI62
aI65
aI73
aI78
aI79
aI90
aI98
aI114
aI116
aI117
aI118
aI127
aI132
aI136
aI154
aI159
aI160
aI164
aI167
aI181
aI182
aI183
aI186
aI198
aI235
aI236
aI241
aI248
aI255
aI260
aI268
aI273
aI274
aI287
aI293
aI294
aI307
aI311
aI327
aI331
aI333
aI346
aI350
aI351
aI355
aI363
aI374
aI376
aI384
aI386
aI397
aI399
aa(lp89
I13
aI15
aI31
aI35
aI38
aI41
aI43
aI53
aI56
aI66
aI69
aI70
aI77
aI81
aI87
aI97
aI100
aI110
aI111
aI112
aI126
aI132
aI133
aI142
aI147
aI163
aI171
aI173
aI176
aI178
aI181
aI187
aI196
aI202
aI208
aI215
aI221
aI234
aI245
aI247
aI251
aI259
aI267
aI281
aI301
aI312
aI313
aI314
aI315
aI318
aI336
aI338
aI341
aI342
aI343
aI355
aI374
aI379
aI391
aI393
aI394
aa(lp90
I0
aI12
aI22
aI25
aI39
aI41
aI51
aI73
aI74
aI76
aI88
aI91
aI95
aI109
aI112
aI133
aI135
aI145
aI146
aI158
aI160
aI172
aI174
aI181
aI197
aI200
aI212
aI217
aI221
aI245
aI252
aI254
aI276
aI282
aI293
aI295
aI300
aI314
aI316
aI318
aI319
aI359
aI374
aI375
aI388
aI391
aI399
aa(lp91
I0
aI3
aI45
aI47
aI61
aI67
aI71
aI83
aI98
aI109
aI115
aI119
aI125
aI136
aI139
aI141
aI143
aI181
aI195
aI202
aI203
aI223
aI224
aI225
aI231
aI232
aI238
aI250
aI255
aI258
aI262
aI281
aI283
aI284
aI300
aI314
aI324
aI325
aI329
aI340
aI351
aI362
aI363
aI367
aI376
aI379
aI383
aI385
aa(lp92
I7
aI15
aI17
aI21
aI25
aI34
aI46
aI56
aI69
aI70
aI73
aI86
aI92
aI95
aI98
aI100
aI102
aI109
aI117
aI127
aI129
aI133
aI142
aI156
aI177
aI181
aI195
aI198
aI212
aI223
aI224
aI226
aI229
aI271
aI281
aI282
aI304
aI306
aI307
aI320
aI331
aI333
aI344
aI362
aI373
aI382
aI388
aI391
aI395
aa(lp93
I0
aI20
aI22
aI25
aI34
aI38
aI55
aI60
aI62
aI65
aI66
aI73
aI74
aI75
aI76
aI79
aI95
aI100
aI101
aI103
aI107
aI119
aI137
aI139
aI156
aI187
aI194
aI204
aI215
aI217
aI218
aI221
aI226
aI227
aI238
aI254
aI258
aI263
aI264
aI285
aI287
aI291
aI301
aI304
aI311
aI317
aI319
aI334
aI335
aI336
aI339
aI355
aI363
aI370
aI386
aI391
aa(lp94
I1
aI7
aI27
aI44
aI45
aI78
aI83
aI85
aI87
aI92
aI94
aI98
aI110
aI112
aI118
aI120
aI123
aI129
aI130
aI140
aI149
aI163
aI165
aI167
aI169
aI172
aI176
aI195
aI204
aI211
aI212
aI220
aI229
aI230
aI240
aI251
aI265
aI267
aI269
aI283
aI295
aI318
aI319
aI324
aI325
aI331
aI337
aI338
aI343
aI351
aI352
aI373
aI382
aI389
aI390
aa(lp95
I4
aI11
aI13
aI18
aI26
aI34
aI44
aI54
aI58
aI62
aI68
aI71
aI87
aI88
aI90
aI93
aI96
aI101
aI102
aI122
aI126
aI130
aI135
aI136
aI141
aI151
aI152
aI157
aI164
aI165
aI168
aI185
aI191
aI193
aI195
aI201
aI206
aI221
aI227
aI231
aI237
aI241
aI246
aI251
aI261
aI265
aI270
aI282
aI288
aI292
aI293
aI297
aI305
aI317
aI321
aI333
aI336
aI340
aI341
aI342
aI353
aI359
aI361
aI376
aI382
aI384
aI387
aI391
aI395
aa(lp96
I4
aI11
aI22
aI23
aI33
aI34
aI37
aI46
aI54
aI58
aI61
aI81
aI86
aI87
aI92
aI115
aI130
aI142
aI146
aI148
aI164
aI169
aI212
aI244
aI250
aI253
aI256
aI260
aI275
aI286
aI289
aI300
aI301
aI306
aI307
aI322
aI325
aI347
aI377
aI385
aI386
aI389
aI390
aa(lp97
I25
aI33
aI38
aI49
aI64
aI68
aI72
aI82
aI83
aI86
aI99
aI102
aI104
aI106
aI132
aI134
aI136
aI143
aI148
aI149
aI163
aI167
aI185
aI186
aI204
aI212
aI213
aI216
aI218
aI221
aI237
aI239
aI241
aI247
aI260
aI264
aI274
aI278
aI282
aI284
aI288
aI295
aI297
aI305
aI324
aI331
aI341
aI342
aI344
aI346
aI358
aI363
aI373
aI374
aI377
aI379
aI389
aI395
aI398
aI399
aa(lp98
I5
aI9
aI12
aI20
aI48
aI50
aI68
aI77
aI79
aI83
aI87
aI97
aI105
aI106
aI109
aI114
aI121
aI129
aI135
aI143
aI145
aI146
aI147
aI148
aI150
aI153
aI159
aI168
aI181
aI185
aI186
aI188
aI201
aI211
aI212
aI219
aI225
aI243
aI244
aI247
aI249
aI250
aI251
aI254
aI255
aI257
aI258
aI262
aI266
aI270
aI273
aI313
aI317
aI330
aI334
aI336
aI341
aI344
aI352
aI354
aI357
aI366
aI375
aI377
aI383
aI388
aI395
aa(lp99
I5
aI8
aI12
aI14
aI33
aI48
aI49
aI56
aI69
aI73
aI74
aI81
aI94
aI103
aI105
aI106
aI111
aI123
aI135
aI148
aI149
aI150
aI154
aI157
aI174
aI178
aI182
aI188
aI194
aI196
aI197
aI211
aI218
aI246
aI255
aI259
aI264
aI267
aI272
aI280
aI303
aI308
aI310
aI326
aI334
aI339
aI341
aI350
aI351
aI357
aI362
aI363
aI366
aI373
aa(lp100
I5
aI6
aI24
aI33
aI35
aI37
aI47
aI51
aI76
aI85
aI89
aI91
aI93
aI96
aI103
aI110
aI113
aI115
aI118
aI134
aI147
aI153
aI164
aI167
aI175
aI176
aI183
aI185
aI187
aI191
aI194
aI200
aI210
aI217
aI218
aI219
aI221
aI237
aI251
aI256
aI257
aI262
aI265
aI279
aI282
aI291
aI292
aI296
aI299
aI301
aI304
aI305
aI306
aI307
aI319
aI343
aI344
aI355
aI370
aI376
aI389
aI391
aI393
aI398
aatp101
bsS'format'
p102
S'Spa'
p103
sS'dtype'
p104
g14
(S'f8'
p105
I0
I1
tp106
Rp107
(I3
S'<'
p108
NNNI-1
I-1
I0
tp109
bsS'_shape'
p110
(I80
I400
tp111
sS'maxprint'
p112
I50
sS'data'
p113
g7
(g8
(I0
tp114
g10
tp115
Rp116
(I1
(I80
tp117
g17
I00
(lp118
(lp119
F-0.001
aF-0.001
aF-0.001
aF-0.001
aF-0.001
aF-0.001
aF-0.001
aF-0.001
aF-0.001
aF-0.001
aF-0.001
aF-0.001
aF-0.001
aF-0.001
aF-0.001
aF-0.001
aF-0.001
aF-0.001
aF-0.001
aF-0.001
aF-0.001
aF-0.001
aF-0.001
aF-0.001
aF-0.001
aF-0.001
aF-0.001
aF-0.001
aF-0.001
aF-0.001
aF-0.001
aF-0.001
aF-0.001
aF-0.001
aF-0.001
aF-0.001
aF-0.001
aF-0.001
aF-0.001
aF-0.001
aF-0.001
aF-0.001
aF-0.001
aF-0.001
aF-0.001
aF-0.001
aF-0.001
aF-0.001
aF-0.001
aF-0.001
aF-0.001
aF-0.001
aF-0.001
aF-0.001
aF-0.001
aF-0.001
aF-0.001
aF-0.001
aa(lp120
F-0.001
aF-0.001
aF-0.001
aF-0.001
aF-0.001
aF-0.001
aF-0.001
aF-0.001
aF-0.001
aF-0.001
aF-0.001
aF-0.001
aF-0.001
aF-0.001
aF-0.001
aF-0.001
aF-0.001
aF-0.001
aF-0.001
aF-0.001
aF-0.001
aF-0.001
aF-0.001
aF-0.001
aF-0.001
aF-0.001
aF-0.001
aF-0.001
aF-0.001
aF-0.001
aF-0.001
aF-0.001
aF-0.001
aF-0.001
aF-0.001
aF-0.001
aF-0.001
aF-0.001
aF-0.001
aF-0.001
aF-0.001
aF-0.001
aF-0.001
aF-0.001
aF-0.001
aF-0.001
aF-0.001
aF-0.001
aF-0.001
aF-0.001
aF-0.001
aF-0.001
aF-0.001
aF-0.001
aF-0.001
aF-0.001
aF-0.001
aF-0.001
aF-0.001
aF-0.001
aF-0.001
aF-0.001
aF-0.001
aF-0.001
aF-0.001
aF-0.001
aF-0.001
aF-0.001
aF-0.001
aF-0.001
aa(lp121
F-0.001
aF-0.001
aF-0.001
aF-0.001
aF-0.001
aF-0.001
aF-0.001
aF-0.001
aF-0.001
aF-0.001
aF-0.001
aF-0.001
aF-0.001
aF-0.001
aF-0.001
aF-0.001
aF-0.001
aF-0.001
aF-0.001
aF-0.001
aF-0.001
aF-0.001
aF-0.001
aF-0.001
aF-0.001
aF-0.001
aF-0.001
aF-0.001
aF-0.001
aF-0.001
aF-0.001
aF-0.001
aF-0.001
aF-0.001
aF-0.001
aF-0.001
aF-0.001
aF-0.001
aF-0.001
aF-0.001
aF-0.001
aF-0.001
aF-0.001
aF-0.001
aF-0.001
aF-0.001
aF-0.001
aF-0.001
aF-0.001
aF-0.001
aF-0.001
aF-0.001
aF-0.001
aF-0.001
aF-0.001
aF-0.001
aF-0.001
aF-0.001
aF-0.001
aF-0.001
aa(lp122
F-0.001
aF-0.001
aF-0.001
aF-0.001
aF-0.001
aF-0.001
aF-0.001
aF-0.001
aF-0.001
aF-0.001
aF-0.001
aF-0.001
aF-0.001
aF-0.001
aF-0.001
aF-0.001
aF-0.001
aF-0.001
aF-0.001
aF-0.001
aF-0.001
aF-0.001
aF-0.001
aF-0.001
aF-0.001
aF-0.001
aF-0.001
aF-0.001
aF-0.001
aF-0.001
aF-0.001
aF-0.001
aF-0.001
aF-0.001
aF-0.001
aF-0.001
aF-0.001
aF-0.001
aF-0.001
aF-0.001
aF-0.001
aF-0.001
aF-0.001
aF-0.001
aF-0.001
aF-0.001
aF-0.001
aF-0.001
aF-0.001
aF-0.001
aF-0.001
aF-0.001
aF-0.001
aF-0.001
aF-0.001
aF-0.001
aa(lp123
F-0.001
aF-0.001
aF-0.001
aF-0.001
aF-0.001
aF-0.001
aF-0.001
aF-0.001
aF-0.001
aF-0.001
aF-0.001
aF-0.001
aF-0.001
aF-0.001
aF-0.001
aF-0.001
aF-0.001
aF-0.001
aF-0.001
aF-0.001
aF-0.001
aF-0.001
aF-0.001
aF-0.001
aF-0.001
aF-0.001
aF-0.001
aF-0.001
aF-0.001
aF-0.001
aF-0.001
aF-0.001
aF-0.001
aF-0.001
aF-0.001
aF-0.001
aF-0.001
aF-0.001
aF-0.001
aF-0.001
aF-0.001
aF-0.001
aF-0.001
aF-0.001
aF-0.001
aF-0.001
aF-0.001
aF-0.001
aF-0.001
aF-0.001
aF-0.001
aF-0.001
aF-0.001
aF-0.001
aF-0.001
aF-0.001
aF-0.001
aF-0.001
aF-0.001
aa(lp124
F-0.001
aF-0.001
aF-0.001
aF-0.001
aF-0.001
aF-0.001
aF-0.001
aF-0.001
aF-0.001
aF-0.001
aF-0.001
aF-0.001
aF-0.001
aF-0.001
aF-0.001
aF-0.001
aF-0.001
aF-0.001
aF-0.001
aF-0.001
aF-0.001
aF-0.001
aF-0.001
aF-0.001
aF-0.001
aF-0.001
aF-0.001
aF-0.001
aF-0.001
aF-0.001
aF-0.001
aF-0.001
aF-0.001
aF-0.001
aF-0.001
aF-0.001
aF-0.001
aF-0.001
aF-0.001
aF-0.001
aF-0.001
aF-0.001
aF-0.001
aF-0.001
aF-0.001
aF-0.001
aF-0.001
aF-0.001
aF-0.001
aF-0.001
aF-0.001
aF-0.001
aF-0.001
aF-0.001
aF-0.001
aF-0.001
aF-0.001
aF-0.001
aF-0.001
aF-0.001
aF-0.001
aa(lp125
F-0.001
aF-0.001
aF-0.001
aF-0.001
aF-0.001
aF-0.001
aF-0.001
aF-0.001
aF-0.001
aF-0.001
aF-0.001
aF-0.001
aF-0.001
aF-0.001
aF-0.001
aF-0.001
aF-0.001
aF-0.001
aF-0.001
aF-0.001
aF-0.001
aF-0.001
aF-0.001
aF-0.001
aF-0.001
aF-0.001
aF-0.001
aF-0.001
aF-0.001
aF-0.001
aF-0.001
aF-0.001
aF-0.001
aF-0.001
aF-0.001
aF-0.001
aF-0.001
aF-0.001
aF-0.001
aF-0.001
aF-0.001
aF-0.001
aF-0.001
aF-0.001
aF-0.001
aF-0.001
aF-0.001
aF-0.001
aF-0.001
aF-0.001
aF-0.001
aF-0.001
aF-0.001
aF-0.001
aa(lp126
F-0.001
aF-0.001
aF-0.001
aF-0.001
aF-0.001
aF-0.001
aF-0.001
aF-0.001
aF-0.001
aF-0.001
aF-0.001
aF-0.001
aF-0.001
aF-0.001
aF-0.001
aF-0.001
aF-0.001
aF-0.001
aF-0.001
aF-0.001
aF-0.001
aF-0.001
aF-0.001
aF-0.001
aF-0.001
aF-0.001
aF-0.001
aF-0.001
aF-0.001
aF-0.001
aF-0.001
aF-0.001
aF-0.001
aF-0.001
aF-0.001
aF-0.001
aF-0.001
aF-0.001
aF-0.001
aF-0.001
aF-0.001
aF-0.001
aF-0.001
aF-0.001
aF-0.001
aF-0.001
aF-0.001
aF-0.001
aF-0.001
aF-0.001
aF-0.001
aF-0.001
aF-0.001
aF-0.001
aF-0.001
aF-0.001
aF-0.001
aF-0.001
aa(lp127
F-0.001
aF-0.001
aF-0.001
aF-0.001
aF-0.001
aF-0.001
aF-0.001
aF-0.001
aF-0.001
aF-0.001
aF-0.001
aF-0.001
aF-0.001
aF-0.001
aF-0.001
aF-0.001
aF-0.001
aF-0.001
aF-0.001
aF-0.001
aF-0.001
aF-0.001
aF-0.001
aF-0.001
aF-0.001
aF-0.001
aF-0.001
aF-0.001
aF-0.001
aF-0.001
aF-0.001
aF-0.001
aF-0.001
aF-0.001
aF-0.001
aF-0.001
aF-0.001
aF-0.001
aF-0.001
aF-0.001
aF-0.001
aF-0.001
aF-0.001
aF-0.001
aF-0.001
aF-0.001
aF-0.001
aF-0.001
aF-0.001
aF-0.001
aF-0.001
aF-0.001
aF-0.001
aF-0.001
aF-0.001
aF-0.001
aF-0.001
aF-0.001
aF-0.001
aF-0.001
aF-0.001
aF-0.001
aF-0.001
aa(lp128
F-0.001
aF-0.001
aF-0.001
aF-0.001
aF-0.001
aF-0.001
aF-0.001
aF-0.001
aF-0.001
aF-0.001
aF-0.001
aF-0.001
aF-0.001
aF-0.001
aF-0.001
aF-0.001
aF-0.001
aF-0.001
aF-0.001
aF-0.001
aF-0.001
aF-0.001
aF-0.001
aF-0.001
aF-0.001
aF-0.001
aF-0.001
aF-0.001
aF-0.001
aF-0.001
aF-0.001
aF-0.001
aF-0.001
aF-0.001
aF-0.001
aF-0.001
aF-0.001
aF-0.001
aF-0.001
aF-0.001
aF-0.001
aF-0.001
aF-0.001
aF-0.001
aF-0.001
aF-0.001
aF-0.001
aF-0.001
aF-0.001
aF-0.001
aF-0.001
aa(lp129
F-0.001
aF-0.001
aF-0.001
aF-0.001
aF-0.001
aF-0.001
aF-0.001
aF-0.001
aF-0.001
aF-0.001
aF-0.001
aF-0.001
aF-0.001
aF-0.001
aF-0.001
aF-0.001
aF-0.001
aF-0.001
aF-0.001
aF-0.001
aF-0.001
aF-0.001
aF-0.001
aF-0.001
aF-0.001
aF-0.001
aF-0.001
aF-0.001
aF-0.001
aF-0.001
aF-0.001
aF-0.001
aF-0.001
aF-0.001
aF-0.001
aF-0.001
aF-0.001
aF-0.001
aF-0.001
aF-0.001
aF-0.001
aF-0.001
aF-0.001
aF-0.001
aF-0.001
aF-0.001
aF-0.001
aF-0.001
aF-0.001
aF-0.001
aF-0.001
aF-0.001
aF-0.001
aF-0.001
aF-0.001
aF-0.001
aF-0.001
aF-0.001
aF-0.001
aF-0.001
aF-0.001
aF-0.001
aF-0.001
aF-0.001
aF-0.001
aF-0.001
aF-0.001
aF-0.001
aF-0.001
aF-0.001
aF-0.001
aF-0.001
aF-0.001
aa(lp130
F-0.001
aF-0.001
aF-0.001
aF-0.001
aF-0.001
aF-0.001
aF-0.001
aF-0.001
aF-0.001
aF-0.001
aF-0.001
aF-0.001
aF-0.001
aF-0.001
aF-0.001
aF-0.001
aF-0.001
aF-0.001
aF-0.001
aF-0.001
aF-0.001
aF-0.001
aF-0.001
aF-0.001
aF-0.001
aF-0.001
aF-0.001
aF-0.001
aF-0.001
aF-0.001
aF-0.001
aF-0.001
aF-0.001
aF-0.001
aF-0.001
aF-0.001
aF-0.001
aF-0.001
aF-0.001
aF-0.001
aF-0.001
aF-0.001
aF-0.001
aF-0.001
aF-0.001
aF-0.001
aF-0.001
aF-0.001
aF-0.001
aF-0.001
aF-0.001
aF-0.001
aF-0.001
aF-0.001
aF-0.001
aF-0.001
aF-0.001
aF-0.001
aa(lp131
F-0.001
aF-0.001
aF-0.001
aF-0.001
aF-0.001
aF-0.001
aF-0.001
aF-0.001
aF-0.001
aF-0.001
aF-0.001
aF-0.001
aF-0.001
aF-0.001
aF-0.001
aF-0.001
aF-0.001
aF-0.001
aF-0.001
aF-0.001
aF-0.001
aF-0.001
aF-0.001
aF-0.001
aF-0.001
aF-0.001
aF-0.001
aF-0.001
aF-0.001
aF-0.001
aF-0.001
aF-0.001
aF-0.001
aF-0.001
aF-0.001
aF-0.001
aF-0.001
aF-0.001
aF-0.001
aF-0.001
aF-0.001
aF-0.001
aF-0.001
aF-0.001
aF-0.001
aF-0.001
aF-0.001
aF-0.001
aF-0.001
aF-0.001
aF-0.001
aF-0.001
aF-0.001
aF-0.001
aF-0.001
aF-0.001
aF-0.001
aF-0.001
aF-0.001
aF-0.001
aF-0.001
aF-0.001
aF-0.001
aF-0.001
aF-0.001
aF-0.001
aF-0.001
aF-0.001
aa(lp132
F-0.001
aF-0.001
aF-0.001
aF-0.001
aF-0.001
aF-0.001
aF-0.001
aF-0.001
aF-0.001
aF-0.001
aF-0.001
aF-0.001
aF-0.001
aF-0.001
aF-0.001
aF-0.001
aF-0.001
aF-0.001
aF-0.001
aF-0.001
aF-0.001
aF-0.001
aF-0.001
aF-0.001
aF-0.001
aF-0.001
aF-0.001
aF-0.001
aF-0.001
aF-0.001
aF-0.001
aF-0.001
aF-0.001
aF-0.001
aF-0.001
aF-0.001
aF-0.001
aF-0.001
aF-0.001
aF-0.001
aF-0.001
aF-0.001
aF-0.001
aF-0.001
aF-0.001
aF-0.001
aF-0.001
aF-0.001
aF-0.001
aF-0.001
aF-0.001
aF-0.001
aF-0.001
aF-0.001
aF-0.001
aa(lp133
F-0.001
aF-0.001
aF-0.001
aF-0.001
aF-0.001
aF-0.001
aF-0.001
aF-0.001
aF-0.001
aF-0.001
aF-0.001
aF-0.001
aF-0.001
aF-0.001
aF-0.001
aF-0.001
aF-0.001
aF-0.001
aF-0.001
aF-0.001
aF-0.001
aF-0.001
aF-0.001
aF-0.001
aF-0.001
aF-0.001
aF-0.001
aF-0.001
aF-0.001
aF-0.001
aF-0.001
aF-0.001
aF-0.001
aF-0.001
aF-0.001
aF-0.001
aF-0.001
aF-0.001
aF-0.001
aF-0.001
aF-0.001
aF-0.001
aF-0.001
aF-0.001
aF-0.001
aF-0.001
aF-0.001
aF-0.001
aF-0.001
aF-0.001
aa(lp134
F-0.001
aF-0.001
aF-0.001
aF-0.001
aF-0.001
aF-0.001
aF-0.001
aF-0.001
aF-0.001
aF-0.001
aF-0.001
aF-0.001
aF-0.001
aF-0.001
aF-0.001
aF-0.001
aF-0.001
aF-0.001
aF-0.001
aF-0.001
aF-0.001
aF-0.001
aF-0.001
aF-0.001
aF-0.001
aF-0.001
aF-0.001
aF-0.001
aF-0.001
aF-0.001
aF-0.001
aF-0.001
aF-0.001
aF-0.001
aF-0.001
aF-0.001
aF-0.001
aF-0.001
aF-0.001
aF-0.001
aF-0.001
aF-0.001
aF-0.001
aF-0.001
aF-0.001
aF-0.001
aF-0.001
aF-0.001
aa(lp135
F-0.001
aF-0.001
aF-0.001
aF-0.001
aF-0.001
aF-0.001
aF-0.001
aF-0.001
aF-0.001
aF-0.001
aF-0.001
aF-0.001
aF-0.001
aF-0.001
aF-0.001
aF-0.001
aF-0.001
aF-0.001
aF-0.001
aF-0.001
aF-0.001
aF-0.001
aF-0.001
aF-0.001
aF-0.001
aF-0.001
aF-0.001
aF-0.001
aF-0.001
aF-0.001
aF-0.001
aF-0.001
aF-0.001
aF-0.001
aF-0.001
aF-0.001
aF-0.001
aF-0.001
aF-0.001
aF-0.001
aF-0.001
aF-0.001
aF-0.001
aF-0.001
aF-0.001
aF-0.001
aF-0.001
aF-0.001
aF-0.001
aF-0.001
aF-0.001
aF-0.001
aF-0.001
aF-0.001
aF-0.001
aF-0.001
aF-0.001
aF-0.001
aa(lp136
F-0.001
aF-0.001
aF-0.001
aF-0.001
aF-0.001
aF-0.001
aF-0.001
aF-0.001
aF-0.001
aF-0.001
aF-0.001
aF-0.001
aF-0.001
aF-0.001
aF-0.001
aF-0.001
aF-0.001
aF-0.001
aF-0.001
aF-0.001
aF-0.001
aF-0.001
aF-0.001
aF-0.001
aF-0.001
aF-0.001
aF-0.001
aF-0.001
aF-0.001
aF-0.001
aF-0.001
aF-0.001
aF-0.001
aF-0.001
aF-0.001
aF-0.001
aF-0.001
aF-0.001
aF-0.001
aF-0.001
aF-0.001
aF-0.001
aF-0.001
aF-0.001
aF-0.001
aF-0.001
aF-0.001
aF-0.001
aF-0.001
aF-0.001
aF-0.001
aF-0.001
aF-0.001
aF-0.001
aF-0.001
aF-0.001
aF-0.001
aF-0.001
aF-0.001
aF-0.001
aF-0.001
aF-0.001
aa(lp137
F-0.001
aF-0.001
aF-0.001
aF-0.001
aF-0.001
aF-0.001
aF-0.001
aF-0.001
aF-0.001
aF-0.001
aF-0.001
aF-0.001
aF-0.001
aF-0.001
aF-0.001
aF-0.001
aF-0.001
aF-0.001
aF-0.001
aF-0.001
aF-0.001
aF-0.001
aF-0.001
aF-0.001
aF-0.001
aF-0.001
aF-0.001
aF-0.001
aF-0.001
aF-0.001
aF-0.001
aF-0.001
aF-0.001
aF-0.001
aF-0.001
aF-0.001
aF-0.001
aF-0.001
aF-0.001
aF-0.001
aF-0.001
aF-0.001
aF-0.001
aF-0.001
aF-0.001
aF-0.001
aF-0.001
aF-0.001
aF-0.001
aF-0.001
aF-0.001
aF-0.001
aF-0.001
aF-0.001
aF-0.001
aF-0.001
aF-0.001
aF-0.001
aF-0.001
aF-0.001
aF-0.001
aF-0.001
aF-0.001
aF-0.001
aF-0.001
aa(lp138
F-0.001
aF-0.001
aF-0.001
aF-0.001
aF-0.001
aF-0.001
aF-0.001
aF-0.001
aF-0.001
aF-0.001
aF-0.001
aF-0.001
aF-0.001
aF-0.001
aF-0.001
aF-0.001
aF-0.001
aF-0.001
aF-0.001
aF-0.001
aF-0.001
aF-0.001
aF-0.001
aF-0.001
aF-0.001
aF-0.001
aF-0.001
aF-0.001
aF-0.001
aF-0.001
aF-0.001
aF-0.001
aF-0.001
aF-0.001
aF-0.001
aF-0.001
aF-0.001
aF-0.001
aF-0.001
aF-0.001
aF-0.001
aF-0.001
aF-0.001
aF-0.001
aF-0.001
aF-0.001
aF-0.001
aF-0.001
aF-0.001
aF-0.001
aF-0.001
aF-0.001
aF-0.001
aF-0.001
aF-0.001
aF-0.001
aF-0.001
aF-0.001
aF-0.001
aF-0.001
aa(lp139
F-0.001
aF-0.001
aF-0.001
aF-0.001
aF-0.001
aF-0.001
aF-0.001
aF-0.001
aF-0.001
aF-0.001
aF-0.001
aF-0.001
aF-0.001
aF-0.001
aF-0.001
aF-0.001
aF-0.001
aF-0.001
aF-0.001
aF-0.001
aF-0.001
aF-0.001
aF-0.001
aF-0.001
aF-0.001
aF-0.001
aF-0.001
aF-0.001
aF-0.001
aF-0.001
aF-0.001
aF-0.001
aF-0.001
aF-0.001
aF-0.001
aF-0.001
aF-0.001
aF-0.001
aF-0.001
aF-0.001
aF-0.001
aF-0.001
aF-0.001
aF-0.001
aF-0.001
aF-0.001
aF-0.001
aF-0.001
aF-0.001
aF-0.001
aF-0.001
aF-0.001
aF-0.001
aF-0.001
aF-0.001
aa(lp140
F-0.001
aF-0.001
aF-0.001
aF-0.001
aF-0.001
aF-0.001
aF-0.001
aF-0.001
aF-0.001
aF-0.001
aF-0.001
aF-0.001
aF-0.001
aF-0.001
aF-0.001
aF-0.001
aF-0.001
aF-0.001
aF-0.001
aF-0.001
aF-0.001
aF-0.001
aF-0.001
aF-0.001
aF-0.001
aF-0.001
aF-0.001
aF-0.001
aF-0.001
aF-0.001
aF-0.001
aF-0.001
aF-0.001
aF-0.001
aF-0.001
aF-0.001
aF-0.001
aF-0.001
aF-0.001
aF-0.001
aF-0.001
aF-0.001
aF-0.001
aF-0.001
aF-0.001
aF-0.001
aF-0.001
aF-0.001
aF-0.001
aF-0.001
aa(lp141
F-0.001
aF-0.001
aF-0.001
aF-0.001
aF-0.001
aF-0.001
aF-0.001
aF-0.001
aF-0.001
aF-0.001
aF-0.001
aF-0.001
aF-0.001
aF-0.001
aF-0.001
aF-0.001
aF-0.001
aF-0.001
aF-0.001
aF-0.001
aF-0.001
aF-0.001
aF-0.001
aF-0.001
aF-0.001
aF-0.001
aF-0.001
aF-0.001
aF-0.001
aF-0.001
aF-0.001
aF-0.001
aF-0.001
aF-0.001
aF-0.001
aF-0.001
aF-0.001
aF-0.001
aF-0.001
aF-0.001
aF-0.001
aF-0.001
aF-0.001
aF-0.001
aF-0.001
aF-0.001
aF-0.001
aF-0.001
aF-0.001
aF-0.001
aF-0.001
aF-0.001
aF-0.001
aa(lp142
F-0.001
aF-0.001
aF-0.001
aF-0.001
aF-0.001
aF-0.001
aF-0.001
aF-0.001
aF-0.001
aF-0.001
aF-0.001
aF-0.001
aF-0.001
aF-0.001
aF-0.001
aF-0.001
aF-0.001
aF-0.001
aF-0.001
aF-0.001
aF-0.001
aF-0.001
aF-0.001
aF-0.001
aF-0.001
aF-0.001
aF-0.001
aF-0.001
aF-0.001
aF-0.001
aF-0.001
aF-0.001
aF-0.001
aF-0.001
aF-0.001
aF-0.001
aF-0.001
aF-0.001
aF-0.001
aF-0.001
aF-0.001
aF-0.001
aF-0.001
aF-0.001
aF-0.001
aF-0.001
aF-0.001
aF-0.001
aF-0.001
aF-0.001
aF-0.001
aF-0.001
aF-0.001
aF-0.001
aa(lp143
F-0.001
aF-0.001
aF-0.001
aF-0.001
aF-0.001
aF-0.001
aF-0.001
aF-0.001
aF-0.001
aF-0.001
aF-0.001
aF-0.001
aF-0.001
aF-0.001
aF-0.001
aF-0.001
aF-0.001
aF-0.001
aF-0.001
aF-0.001
aF-0.001
aF-0.001
aF-0.001
aF-0.001
aF-0.001
aF-0.001
aF-0.001
aF-0.001
aF-0.001
aF-0.001
aF-0.001
aF-0.001
aF-0.001
aF-0.001
aF-0.001
aF-0.001
aF-0.001
aF-0.001
aF-0.001
aF-0.001
aF-0.001
aF-0.001
aF-0.001
aF-0.001
aF-0.001
aF-0.001
aF-0.001
aF-0.001
aF-0.001
aF-0.001
aF-0.001
aF-0.001
aF-0.001
aF-0.001
aF-0.001
aF-0.001
aF-0.001
aF-0.001
aF-0.001
aF-0.001
aF-0.001
aF-0.001
aF-0.001
aa(lp144
F-0.001
aF-0.001
aF-0.001
aF-0.001
aF-0.001
aF-0.001
aF-0.001
aF-0.001
aF-0.001
aF-0.001
aF-0.001
aF-0.001
aF-0.001
aF-0.001
aF-0.001
aF-0.001
aF-0.001
aF-0.001
aF-0.001
aF-0.001
aF-0.001
aF-0.001
aF-0.001
aF-0.001
aF-0.001
aF-0.001
aF-0.001
aF-0.001
aF-0.001
aF-0.001
aF-0.001
aF-0.001
aF-0.001
aF-0.001
aF-0.001
aF-0.001
aF-0.001
aF-0.001
aF-0.001
aF-0.001
aF-0.001
aF-0.001
aF-0.001
aF-0.001
aF-0.001
aF-0.001
aF-0.001
aF-0.001
aF-0.001
aF-0.001
aF-0.001
aF-0.001
aa(lp145
F-0.001
aF-0.001
aF-0.001
aF-0.001
aF-0.001
aF-0.001
aF-0.001
aF-0.001
aF-0.001
aF-0.001
aF-0.001
aF-0.001
aF-0.001
aF-0.001
aF-0.001
aF-0.001
aF-0.001
aF-0.001
aF-0.001
aF-0.001
aF-0.001
aF-0.001
aF-0.001
aF-0.001
aF-0.001
aF-0.001
aF-0.001
aF-0.001
aF-0.001
aF-0.001
aF-0.001
aF-0.001
aF-0.001
aF-0.001
aF-0.001
aF-0.001
aF-0.001
aF-0.001
aF-0.001
aF-0.001
aF-0.001
aF-0.001
aF-0.001
aF-0.001
aF-0.001
aF-0.001
aF-0.001
aF-0.001
aF-0.001
aF-0.001
aF-0.001
aF-0.001
aF-0.001
aF-0.001
aF-0.001
aF-0.001
aF-0.001
aF-0.001
aF-0.001
aF-0.001
aF-0.001
aF-0.001
aF-0.001
aF-0.001
aF-0.001
aF-0.001
aF-0.001
aa(lp146
F-0.001
aF-0.001
aF-0.001
aF-0.001
aF-0.001
aF-0.001
aF-0.001
aF-0.001
aF-0.001
aF-0.001
aF-0.001
aF-0.001
aF-0.001
aF-0.001
aF-0.001
aF-0.001
aF-0.001
aF-0.001
aF-0.001
aF-0.001
aF-0.001
aF-0.001
aF-0.001
aF-0.001
aF-0.001
aF-0.001
aF-0.001
aF-0.001
aF-0.001
aF-0.001
aF-0.001
aF-0.001
aF-0.001
aF-0.001
aF-0.001
aF-0.001
aF-0.001
aF-0.001
aF-0.001
aF-0.001
aF-0.001
aF-0.001
aF-0.001
aF-0.001
aF-0.001
aF-0.001
aF-0.001
aF-0.001
aF-0.001
aF-0.001
aF-0.001
aF-0.001
aF-0.001
aF-0.001
aF-0.001
aF-0.001
aF-0.001
aF-0.001
aF-0.001
aF-0.001
aa(lp147
F-0.001
aF-0.001
aF-0.001
aF-0.001
aF-0.001
aF-0.001
aF-0.001
aF-0.001
aF-0.001
aF-0.001
aF-0.001
aF-0.001
aF-0.001
aF-0.001
aF-0.001
aF-0.001
aF-0.001
aF-0.001
aF-0.001
aF-0.001
aF-0.001
aF-0.001
aF-0.001
aF-0.001
aF-0.001
aF-0.001
aF-0.001
aF-0.001
aF-0.001
aF-0.001
aF-0.001
aF-0.001
aF-0.001
aF-0.001
aF-0.001
aF-0.001
aF-0.001
aF-0.001
aF-0.001
aF-0.001
aF-0.001
aF-0.001
aF-0.001
aF-0.001
aF-0.001
aF-0.001
aF-0.001
aF-0.001
aF-0.001
aF-0.001
aF-0.001
aa(lp148
F-0.001
aF-0.001
aF-0.001
aF-0.001
aF-0.001
aF-0.001
aF-0.001
aF-0.001
aF-0.001
aF-0.001
aF-0.001
aF-0.001
aF-0.001
aF-0.001
aF-0.001
aF-0.001
aF-0.001
aF-0.001
aF-0.001
aF-0.001
aF-0.001
aF-0.001
aF-0.001
aF-0.001
aF-0.001
aF-0.001
aF-0.001
aF-0.001
aF-0.001
aF-0.001
aF-0.001
aF-0.001
aF-0.001
aF-0.001
aF-0.001
aF-0.001
aF-0.001
aF-0.001
aF-0.001
aF-0.001
aF-0.001
aF-0.001
aF-0.001
aF-0.001
aF-0.001
aF-0.001
aF-0.001
aF-0.001
aF-0.001
aF-0.001
aF-0.001
aF-0.001
aF-0.001
aF-0.001
aF-0.001
aF-0.001
aF-0.001
aF-0.001
aF-0.001
aF-0.001
aF-0.001
aF-0.001
aa(lp149
F-0.001
aF-0.001
aF-0.001
aF-0.001
aF-0.001
aF-0.001
aF-0.001
aF-0.001
aF-0.001
aF-0.001
aF-0.001
aF-0.001
aF-0.001
aF-0.001
aF-0.001
aF-0.001
aF-0.001
aF-0.001
aF-0.001
aF-0.001
aF-0.001
aF-0.001
aF-0.001
aF-0.001
aF-0.001
aF-0.001
aF-0.001
aF-0.001
aF-0.001
aF-0.001
aF-0.001
aF-0.001
aF-0.001
aF-0.001
aF-0.001
aF-0.001
aF-0.001
aF-0.001
aF-0.001
aF-0.001
aF-0.001
aF-0.001
aF-0.001
aF-0.001
aF-0.001
aF-0.001
aF-0.001
aF-0.001
aF-0.001
aF-0.001
aF-0.001
aF-0.001
aF-0.001
aF-0.001
aF-0.001
aF-0.001
aF-0.001
aF-0.001
aa(lp150
F-0.001
aF-0.001
aF-0.001
aF-0.001
aF-0.001
aF-0.001
aF-0.001
aF-0.001
aF-0.001
aF-0.001
aF-0.001
aF-0.001
aF-0.001
aF-0.001
aF-0.001
aF-0.001
aF-0.001
aF-0.001
aF-0.001
aF-0.001
aF-0.001
aF-0.001
aF-0.001
aF-0.001
aF-0.001
aF-0.001
aF-0.001
aF-0.001
aF-0.001
aF-0.001
aF-0.001
aF-0.001
aF-0.001
aF-0.001
aF-0.001
aF-0.001
aF-0.001
aF-0.001
aF-0.001
aF-0.001
aF-0.001
aF-0.001
aF-0.001
aF-0.001
aF-0.001
aF-0.001
aF-0.001
aF-0.001
aF-0.001
aF-0.001
aF-0.001
aF-0.001
aF-0.001
aF-0.001
aF-0.001
aF-0.001
aF-0.001
aa(lp151
F-0.001
aF-0.001
aF-0.001
aF-0.001
aF-0.001
aF-0.001
aF-0.001
aF-0.001
aF-0.001
aF-0.001
aF-0.001
aF-0.001
aF-0.001
aF-0.001
aF-0.001
aF-0.001
aF-0.001
aF-0.001
aF-0.001
aF-0.001
aF-0.001
aF-0.001
aF-0.001
aF-0.001
aF-0.001
aF-0.001
aF-0.001
aF-0.001
aF-0.001
aF-0.001
aF-0.001
aF-0.001
aF-0.001
aF-0.001
aF-0.001
aF-0.001
aF-0.001
aF-0.001
aF-0.001
aF-0.001
aF-0.001
aF-0.001
aF-0.001
aF-0.001
aF-0.001
aF-0.001
aF-0.001
aF-0.001
aF-0.001
aF-0.001
aF-0.001
aF-0.001
aF-0.001
aF-0.001
aF-0.001
aF-0.001
aF-0.001
aF-0.001
aF-0.001
aF-0.001
aF-0.001
aF-0.001
aF-0.001
aF-0.001
aF-0.001
aF-0.001
aF-0.001
aa(lp152
F-0.001
aF-0.001
aF-0.001
aF-0.001
aF-0.001
aF-0.001
aF-0.001
aF-0.001
aF-0.001
aF-0.001
aF-0.001
aF-0.001
aF-0.001
aF-0.001
aF-0.001
aF-0.001
aF-0.001
aF-0.001
aF-0.001
aF-0.001
aF-0.001
aF-0.001
aF-0.001
aF-0.001
aF-0.001
aF-0.001
aF-0.001
aF-0.001
aF-0.001
aF-0.001
aF-0.001
aF-0.001
aF-0.001
aF-0.001
aF-0.001
aF-0.001
aF-0.001
aF-0.001
aF-0.001
aF-0.001
aF-0.001
aF-0.001
aF-0.001
aF-0.001
aF-0.001
aF-0.001
aF-0.001
aF-0.001
aF-0.001
aa(lp153
F-0.001
aF-0.001
aF-0.001
aF-0.001
aF-0.001
aF-0.001
aF-0.001
aF-0.001
aF-0.001
aF-0.001
aF-0.001
aF-0.001
aF-0.001
aF-0.001
aF-0.001
aF-0.001
aF-0.001
aF-0.001
aF-0.001
aF-0.001
aF-0.001
aF-0.001
aF-0.001
aF-0.001
aF-0.001
aF-0.001
aF-0.001
aF-0.001
aF-0.001
aF-0.001
aF-0.001
aF-0.001
aF-0.001
aF-0.001
aF-0.001
aF-0.001
aF-0.001
aF-0.001
aF-0.001
aF-0.001
aF-0.001
aF-0.001
aF-0.001
aF-0.001
aF-0.001
aF-0.001
aF-0.001
aF-0.001
aF-0.001
aF-0.001
aF-0.001
aF-0.001
aF-0.001
aF-0.001
aF-0.001
aa(lp154
F-0.001
aF-0.001
aF-0.001
aF-0.001
aF-0.001
aF-0.001
aF-0.001
aF-0.001
aF-0.001
aF-0.001
aF-0.001
aF-0.001
aF-0.001
aF-0.001
aF-0.001
aF-0.001
aF-0.001
aF-0.001
aF-0.001
aF-0.001
aF-0.001
aF-0.001
aF-0.001
aF-0.001
aF-0.001
aF-0.001
aF-0.001
aF-0.001
aF-0.001
aF-0.001
aF-0.001
aF-0.001
aF-0.001
aF-0.001
aF-0.001
aF-0.001
aF-0.001
aF-0.001
aF-0.001
aF-0.001
aF-0.001
aF-0.001
aF-0.001
aF-0.001
aF-0.001
aF-0.001
aF-0.001
aF-0.001
aF-0.001
aF-0.001
aF-0.001
aF-0.001
aF-0.001
aF-0.001
aF-0.001
aF-0.001
aF-0.001
aF-0.001
aF-0.001
aF-0.001
aF-0.001
aF-0.001
aF-0.001
aF-0.001
aF-0.001
aF-0.001
aF-0.001
aa(lp155
F-0.001
aF-0.001
aF-0.001
aF-0.001
aF-0.001
aF-0.001
aF-0.001
aF-0.001
aF-0.001
aF-0.001
aF-0.001
aF-0.001
aF-0.001
aF-0.001
aF-0.001
aF-0.001
aF-0.001
aF-0.001
aF-0.001
aF-0.001
aF-0.001
aF-0.001
aF-0.001
aF-0.001
aF-0.001
aF-0.001
aF-0.001
aF-0.001
aF-0.001
aF-0.001
aF-0.001
aF-0.001
aF-0.001
aF-0.001
aF-0.001
aF-0.001
aF-0.001
aF-0.001
aF-0.001
aF-0.001
aF-0.001
aF-0.001
aF-0.001
aF-0.001
aF-0.001
aF-0.001
aF-0.001
aF-0.001
aa(lp156
F-0.001
aF-0.001
aF-0.001
aF-0.001
aF-0.001
aF-0.001
aF-0.001
aF-0.001
aF-0.001
aF-0.001
aF-0.001
aF-0.001
aF-0.001
aF-0.001
aF-0.001
aF-0.001
aF-0.001
aF-0.001
aF-0.001
aF-0.001
aF-0.001
aF-0.001
aF-0.001
aF-0.001
aF-0.001
aF-0.001
aF-0.001
aF-0.001
aF-0.001
aF-0.001
aF-0.001
aF-0.001
aF-0.001
aF-0.001
aF-0.001
aF-0.001
aF-0.001
aF-0.001
aF-0.001
aF-0.001
aF-0.001
aF-0.001
aF-0.001
aF-0.001
aF-0.001
aF-0.001
aF-0.001
aF-0.001
aF-0.001
aF-0.001
aF-0.001
aF-0.001
aF-0.001
aF-0.001
aF-0.001
aF-0.001
aF-0.001
aa(lp157
F-0.001
aF-0.001
aF-0.001
aF-0.001
aF-0.001
aF-0.001
aF-0.001
aF-0.001
aF-0.001
aF-0.001
aF-0.001
aF-0.001
aF-0.001
aF-0.001
aF-0.001
aF-0.001
aF-0.001
aF-0.001
aF-0.001
aF-0.001
aF-0.001
aF-0.001
aF-0.001
aF-0.001
aF-0.001
aF-0.001
aF-0.001
aF-0.001
aF-0.001
aF-0.001
aF-0.001
aF-0.001
aF-0.001
aF-0.001
aF-0.001
aF-0.001
aF-0.001
aF-0.001
aF-0.001
aF-0.001
aF-0.001
aF-0.001
aF-0.001
aF-0.001
aF-0.001
aF-0.001
aF-0.001
aF-0.001
aF-0.001
aF-0.001
aF-0.001
aa(lp158
F-0.001
aF-0.001
aF-0.001
aF-0.001
aF-0.001
aF-0.001
aF-0.001
aF-0.001
aF-0.001
aF-0.001
aF-0.001
aF-0.001
aF-0.001
aF-0.001
aF-0.001
aF-0.001
aF-0.001
aF-0.001
aF-0.001
aF-0.001
aF-0.001
aF-0.001
aF-0.001
aF-0.001
aF-0.001
aF-0.001
aF-0.001
aF-0.001
aF-0.001
aF-0.001
aF-0.001
aF-0.001
aF-0.001
aF-0.001
aF-0.001
aF-0.001
aF-0.001
aF-0.001
aF-0.001
aF-0.001
aF-0.001
aF-0.001
aF-0.001
aF-0.001
aF-0.001
aF-0.001
aF-0.001
aF-0.001
aF-0.001
aF-0.001
aF-0.001
aF-0.001
aF-0.001
aF-0.001
aF-0.001
aF-0.001
aF-0.001
aF-0.001
aF-0.001
aF-0.001
aF-0.001
aF-0.001
aF-0.001
aF-0.001
aF-0.001
aF-0.001
aF-0.001
aF-0.001
aF-0.001
aF-0.001
aF-0.001
aF-0.001
aF-0.001
aF-0.001
aF-0.001
aF-0.001
aF-0.001
aF-0.001
aF-0.001
aF-0.001
aa(lp159
F-0.001
aF-0.001
aF-0.001
aF-0.001
aF-0.001
aF-0.001
aF-0.001
aF-0.001
aF-0.001
aF-0.001
aF-0.001
aF-0.001
aF-0.001
aF-0.001
aF-0.001
aF-0.001
aF-0.001
aF-0.001
aF-0.001
aF-0.001
aF-0.001
aF-0.001
aF-0.001
aF-0.001
aF-0.001
aF-0.001
aF-0.001
aF-0.001
aF-0.001
aF-0.001
aF-0.001
aF-0.001
aF-0.001
aF-0.001
aF-0.001
aF-0.001
aF-0.001
aF-0.001
aF-0.001
aF-0.001
aF-0.001
aF-0.001
aF-0.001
aF-0.001
aF-0.001
aF-0.001
aF-0.001
aF-0.001
aF-0.001
aF-0.001
aF-0.001
aF-0.001
aF-0.001
aF-0.001
aF-0.001
aF-0.001
aF-0.001
aF-0.001
aF-0.001
aF-0.001
aF-0.001
aF-0.001
aF-0.001
aa(lp160
F-0.001
aF-0.001
aF-0.001
aF-0.001
aF-0.001
aF-0.001
aF-0.001
aF-0.001
aF-0.001
aF-0.001
aF-0.001
aF-0.001
aF-0.001
aF-0.001
aF-0.001
aF-0.001
aF-0.001
aF-0.001
aF-0.001
aF-0.001
aF-0.001
aF-0.001
aF-0.001
aF-0.001
aF-0.001
aF-0.001
aF-0.001
aF-0.001
aF-0.001
aF-0.001
aF-0.001
aF-0.001
aF-0.001
aF-0.001
aF-0.001
aF-0.001
aF-0.001
aF-0.001
aF-0.001
aF-0.001
aF-0.001
aF-0.001
aF-0.001
aF-0.001
aF-0.001
aF-0.001
aF-0.001
aF-0.001
aF-0.001
aF-0.001
aF-0.001
aF-0.001
aF-0.001
aF-0.001
aF-0.001
aF-0.001
aF-0.001
aF-0.001
aF-0.001
aF-0.001
aF-0.001
aF-0.001
aF-0.001
aF-0.001
aF-0.001
aa(lp161
F-0.001
aF-0.001
aF-0.001
aF-0.001
aF-0.001
aF-0.001
aF-0.001
aF-0.001
aF-0.001
aF-0.001
aF-0.001
aF-0.001
aF-0.001
aF-0.001
aF-0.001
aF-0.001
aF-0.001
aF-0.001
aF-0.001
aF-0.001
aF-0.001
aF-0.001
aF-0.001
aF-0.001
aF-0.001
aF-0.001
aF-0.001
aF-0.001
aF-0.001
aF-0.001
aF-0.001
aF-0.001
aF-0.001
aF-0.001
aF-0.001
aF-0.001
aF-0.001
aF-0.001
aF-0.001
aF-0.001
aF-0.001
aF-0.001
aF-0.001
aF-0.001
aF-0.001
aF-0.001
aF-0.001
aF-0.001
aF-0.001
aF-0.001
aF-0.001
aF-0.001
aF-0.001
aF-0.001
aF-0.001
aF-0.001
aF-0.001
aF-0.001
aF-0.001
aF-0.001
aF-0.001
aF-0.001
aF-0.001
aF-0.001
aF-0.001
aF-0.001
aF-0.001
aF-0.001
aF-0.001
aF-0.001
aF-0.001
aa(lp162
F-0.001
aF-0.001
aF-0.001
aF-0.001
aF-0.001
aF-0.001
aF-0.001
aF-0.001
aF-0.001
aF-0.001
aF-0.001
aF-0.001
aF-0.001
aF-0.001
aF-0.001
aF-0.001
aF-0.001
aF-0.001
aF-0.001
aF-0.001
aF-0.001
aF-0.001
aF-0.001
aF-0.001
aF-0.001
aF-0.001
aF-0.001
aF-0.001
aF-0.001
aF-0.001
aF-0.001
aF-0.001
aF-0.001
aF-0.001
aF-0.001
aF-0.001
aF-0.001
aF-0.001
aF-0.001
aF-0.001
aF-0.001
aF-0.001
aF-0.001
aF-0.001
aF-0.001
aF-0.001
aF-0.001
aF-0.001
aF-0.001
aF-0.001
aF-0.001
aF-0.001
aF-0.001
aF-0.001
aF-0.001
aF-0.001
aF-0.001
aF-0.001
aF-0.001
aF-0.001
aF-0.001
aF-0.001
aF-0.001
aF-0.001
aF-0.001
aF-0.001
aF-0.001
aa(lp163
F-0.001
aF-0.001
aF-0.001
aF-0.001
aF-0.001
aF-0.001
aF-0.001
aF-0.001
aF-0.001
aF-0.001
aF-0.001
aF-0.001
aF-0.001
aF-0.001
aF-0.001
aF-0.001
aF-0.001
aF-0.001
aF-0.001
aF-0.001
aF-0.001
aF-0.001
aF-0.001
aF-0.001
aF-0.001
aF-0.001
aF-0.001
aF-0.001
aF-0.001
aF-0.001
aF-0.001
aF-0.001
aF-0.001
aF-0.001
aF-0.001
aF-0.001
aF-0.001
aF-0.001
aF-0.001
aF-0.001
aF-0.001
aF-0.001
aF-0.001
aF-0.001
aF-0.001
aF-0.001
aF-0.001
aF-0.001
aF-0.001
aF-0.001
aF-0.001
aF-0.001
aF-0.001
aF-0.001
aF-0.001
aF-0.001
aF-0.001
aF-0.001
aF-0.001
aF-0.001
aF-0.001
aF-0.001
aF-0.001
aF-0.001
aa(lp164
F-0.001
aF-0.001
aF-0.001
aF-0.001
aF-0.001
aF-0.001
aF-0.001
aF-0.001
aF-0.001
aF-0.001
aF-0.001
aF-0.001
aF-0.001
aF-0.001
aF-0.001
aF-0.001
aF-0.001
aF-0.001
aF-0.001
aF-0.001
aF-0.001
aF-0.001
aF-0.001
aF-0.001
aF-0.001
aF-0.001
aF-0.001
aF-0.001
aF-0.001
aF-0.001
aF-0.001
aF-0.001
aF-0.001
aF-0.001
aF-0.001
aF-0.001
aF-0.001
aF-0.001
aF-0.001
aF-0.001
aF-0.001
aF-0.001
aF-0.001
aF-0.001
aF-0.001
aF-0.001
aF-0.001
aF-0.001
aa(lp165
F-0.001
aF-0.001
aF-0.001
aF-0.001
aF-0.001
aF-0.001
aF-0.001
aF-0.001
aF-0.001
aF-0.001
aF-0.001
aF-0.001
aF-0.001
aF-0.001
aF-0.001
aF-0.001
aF-0.001
aF-0.001
aF-0.001
aF-0.001
aF-0.001
aF-0.001
aF-0.001
aF-0.001
aF-0.001
aF-0.001
aF-0.001
aF-0.001
aF-0.001
aF-0.001
aF-0.001
aF-0.001
aF-0.001
aF-0.001
aF-0.001
aF-0.001
aF-0.001
aF-0.001
aF-0.001
aF-0.001
aF-0.001
aF-0.001
aF-0.001
aF-0.001
aF-0.001
aF-0.001
aF-0.001
aF-0.001
aF-0.001
aa(lp166
F-0.001
aF-0.001
aF-0.001
aF-0.001
aF-0.001
aF-0.001
aF-0.001
aF-0.001
aF-0.001
aF-0.001
aF-0.001
aF-0.001
aF-0.001
aF-0.001
aF-0.001
aF-0.001
aF-0.001
aF-0.001
aF-0.001
aF-0.001
aF-0.001
aF-0.001
aF-0.001
aF-0.001
aF-0.001
aF-0.001
aF-0.001
aF-0.001
aF-0.001
aF-0.001
aF-0.001
aF-0.001
aF-0.001
aF-0.001
aF-0.001
aF-0.001
aF-0.001
aF-0.001
aF-0.001
aF-0.001
aF-0.001
aF-0.001
aF-0.001
aF-0.001
aF-0.001
aF-0.001
aF-0.001
aF-0.001
aF-0.001
aF-0.001
aF-0.001
aF-0.001
aF-0.001
aF-0.001
aa(lp167
F-0.001
aF-0.001
aF-0.001
aF-0.001
aF-0.001
aF-0.001
aF-0.001
aF-0.001
aF-0.001
aF-0.001
aF-0.001
aF-0.001
aF-0.001
aF-0.001
aF-0.001
aF-0.001
aF-0.001
aF-0.001
aF-0.001
aF-0.001
aF-0.001
aF-0.001
aF-0.001
aF-0.001
aF-0.001
aF-0.001
aF-0.001
aF-0.001
aF-0.001
aF-0.001
aF-0.001
aF-0.001
aF-0.001
aF-0.001
aF-0.001
aF-0.001
aF-0.001
aF-0.001
aF-0.001
aF-0.001
aF-0.001
aF-0.001
aF-0.001
aF-0.001
aF-0.001
aF-0.001
aF-0.001
aF-0.001
aF-0.001
aF-0.001
aF-0.001
aF-0.001
aF-0.001
aF-0.001
aF-0.001
aF-0.001
aF-0.001
aF-0.001
aa(lp168
F-0.001
aF-0.001
aF-0.001
aF-0.001
aF-0.001
aF-0.001
aF-0.001
aF-0.001
aF-0.001
aF-0.001
aF-0.001
aF-0.001
aF-0.001
aF-0.001
aF-0.001
aF-0.001
aF-0.001
aF-0.001
aF-0.001
aF-0.001
aF-0.001
aF-0.001
aF-0.001
aF-0.001
aF-0.001
aF-0.001
aF-0.001
aF-0.001
aF-0.001
aF-0.001
aF-0.001
aF-0.001
aF-0.001
aF-0.001
aF-0.001
aF-0.001
aF-0.001
aF-0.001
aF-0.001
aF-0.001
aF-0.001
aF-0.001
aF-0.001
aF-0.001
aF-0.001
aF-0.001
aF-0.001
aF-0.001
aF-0.001
aF-0.001
aF-0.001
aa(lp169
F-0.001
aF-0.001
aF-0.001
aF-0.001
aF-0.001
aF-0.001
aF-0.001
aF-0.001
aF-0.001
aF-0.001
aF-0.001
aF-0.001
aF-0.001
aF-0.001
aF-0.001
aF-0.001
aF-0.001
aF-0.001
aF-0.001
aF-0.001
aF-0.001
aF-0.001
aF-0.001
aF-0.001
aF-0.001
aF-0.001
aF-0.001
aF-0.001
aF-0.001
aF-0.001
aF-0.001
aF-0.001
aF-0.001
aF-0.001
aF-0.001
aF-0.001
aF-0.001
aF-0.001
aF-0.001
aF-0.001
aF-0.001
aF-0.001
aF-0.001
aF-0.001
aF-0.001
aF-0.001
aF-0.001
aF-0.001
aF-0.001
aa(lp170
F-0.001
aF-0.001
aF-0.001
aF-0.001
aF-0.001
aF-0.001
aF-0.001
aF-0.001
aF-0.001
aF-0.001
aF-0.001
aF-0.001
aF-0.001
aF-0.001
aF-0.001
aF-0.001
aF-0.001
aF-0.001
aF-0.001
aF-0.001
aF-0.001
aF-0.001
aF-0.001
aF-0.001
aF-0.001
aF-0.001
aF-0.001
aF-0.001
aF-0.001
aF-0.001
aF-0.001
aF-0.001
aF-0.001
aF-0.001
aF-0.001
aF-0.001
aF-0.001
aF-0.001
aF-0.001
aF-0.001
aF-0.001
aF-0.001
aF-0.001
aF-0.001
aF-0.001
aF-0.001
aF-0.001
aF-0.001
aF-0.001
aF-0.001
aF-0.001
aF-0.001
aF-0.001
aF-0.001
aa(lp171
F-0.001
aF-0.001
aF-0.001
aF-0.001
aF-0.001
aF-0.001
aF-0.001
aF-0.001
aF-0.001
aF-0.001
aF-0.001
aF-0.001
aF-0.001
aF-0.001
aF-0.001
aF-0.001
aF-0.001
aF-0.001
aF-0.001
aF-0.001
aF-0.001
aF-0.001
aF-0.001
aF-0.001
aF-0.001
aF-0.001
aF-0.001
aF-0.001
aF-0.001
aF-0.001
aF-0.001
aF-0.001
aF-0.001
aF-0.001
aF-0.001
aF-0.001
aF-0.001
aF-0.001
aF-0.001
aF-0.001
aF-0.001
aF-0.001
aF-0.001
aF-0.001
aF-0.001
aF-0.001
aF-0.001
aF-0.001
aF-0.001
aF-0.001
aF-0.001
aF-0.001
aF-0.001
aa(lp172
F-0.001
aF-0.001
aF-0.001
aF-0.001
aF-0.001
aF-0.001
aF-0.001
aF-0.001
aF-0.001
aF-0.001
aF-0.001
aF-0.001
aF-0.001
aF-0.001
aF-0.001
aF-0.001
aF-0.001
aF-0.001
aF-0.001
aF-0.001
aF-0.001
aF-0.001
aF-0.001
aF-0.001
aF-0.001
aF-0.001
aF-0.001
aF-0.001
aF-0.001
aF-0.001
aF-0.001
aF-0.001
aF-0.001
aF-0.001
aF-0.001
aF-0.001
aF-0.001
aF-0.001
aF-0.001
aF-0.001
aF-0.001
aF-0.001
aF-0.001
aF-0.001
aF-0.001
aF-0.001
aF-0.001
aF-0.001
aF-0.001
aF-0.001
aF-0.001
aF-0.001
aF-0.001
aF-0.001
aF-0.001
aF-0.001
aF-0.001
aF-0.001
aF-0.001
aF-0.001
aF-0.001
aF-0.001
aa(lp173
F-0.001
aF-0.001
aF-0.001
aF-0.001
aF-0.001
aF-0.001
aF-0.001
aF-0.001
aF-0.001
aF-0.001
aF-0.001
aF-0.001
aF-0.001
aF-0.001
aF-0.001
aF-0.001
aF-0.001
aF-0.001
aF-0.001
aF-0.001
aF-0.001
aF-0.001
aF-0.001
aF-0.001
aF-0.001
aF-0.001
aF-0.001
aF-0.001
aF-0.001
aF-0.001
aF-0.001
aF-0.001
aF-0.001
aF-0.001
aF-0.001
aF-0.001
aF-0.001
aF-0.001
aF-0.001
aF-0.001
aF-0.001
aF-0.001
aF-0.001
aF-0.001
aF-0.001
aF-0.001
aF-0.001
aF-0.001
aF-0.001
aF-0.001
aF-0.001
aF-0.001
aF-0.001
aF-0.001
aF-0.001
aF-0.001
aF-0.001
aF-0.001
aF-0.001
aF-0.001
aF-0.001
aF-0.001
aF-0.001
aF-0.001
aF-0.001
aF-0.001
aF-0.001
aF-0.001
aF-0.001
aF-0.001
aF-0.001
aF-0.001
aF-0.001
aF-0.001
aF-0.001
aF-0.001
aF-0.001
aa(lp174
F-0.001
aF-0.001
aF-0.001
aF-0.001
aF-0.001
aF-0.001
aF-0.001
aF-0.001
aF-0.001
aF-0.001
aF-0.001
aF-0.001
aF-0.001
aF-0.001
aF-0.001
aF-0.001
aF-0.001
aF-0.001
aF-0.001
aF-0.001
aF-0.001
aF-0.001
aF-0.001
aF-0.001
aF-0.001
aF-0.001
aF-0.001
aF-0.001
aF-0.001
aF-0.001
aF-0.001
aF-0.001
aF-0.001
aF-0.001
aF-0.001
aF-0.001
aF-0.001
aF-0.001
aF-0.001
aF-0.001
aF-0.001
aF-0.001
aF-0.001
aF-0.001
aF-0.001
aF-0.001
aF-0.001
aF-0.001
aF-0.001
aF-0.001
aF-0.001
aF-0.001
aF-0.001
aF-0.001
aF-0.001
aF-0.001
aF-0.001
aa(lp175
F-0.001
aF-0.001
aF-0.001
aF-0.001
aF-0.001
aF-0.001
aF-0.001
aF-0.001
aF-0.001
aF-0.001
aF-0.001
aF-0.001
aF-0.001
aF-0.001
aF-0.001
aF-0.001
aF-0.001
aF-0.001
aF-0.001
aF-0.001
aF-0.001
aF-0.001
aF-0.001
aF-0.001
aF-0.001
aF-0.001
aF-0.001
aF-0.001
aF-0.001
aF-0.001
aF-0.001
aF-0.001
aF-0.001
aF-0.001
aF-0.001
aF-0.001
aF-0.001
aF-0.001
aF-0.001
aF-0.001
aF-0.001
aF-0.001
aF-0.001
aF-0.001
aF-0.001
aF-0.001
aF-0.001
aF-0.001
aF-0.001
aF-0.001
aa(lp176
F-0.001
aF-0.001
aF-0.001
aF-0.001
aF-0.001
aF-0.001
aF-0.001
aF-0.001
aF-0.001
aF-0.001
aF-0.001
aF-0.001
aF-0.001
aF-0.001
aF-0.001
aF-0.001
aF-0.001
aF-0.001
aF-0.001
aF-0.001
aF-0.001
aF-0.001
aF-0.001
aF-0.001
aF-0.001
aF-0.001
aF-0.001
aF-0.001
aF-0.001
aF-0.001
aF-0.001
aF-0.001
aF-0.001
aF-0.001
aF-0.001
aF-0.001
aF-0.001
aF-0.001
aF-0.001
aF-0.001
aF-0.001
aF-0.001
aF-0.001
aF-0.001
aF-0.001
aF-0.001
aF-0.001
aF-0.001
aF-0.001
aF-0.001
aF-0.001
aF-0.001
aF-0.001
aF-0.001
aF-0.001
aF-0.001
aF-0.001
aF-0.001
aF-0.001
aa(lp177
F-0.001
aF-0.001
aF-0.001
aF-0.001
aF-0.001
aF-0.001
aF-0.001
aF-0.001
aF-0.001
aF-0.001
aF-0.001
aF-0.001
aF-0.001
aF-0.001
aF-0.001
aF-0.001
aF-0.001
aF-0.001
aF-0.001
aF-0.001
aF-0.001
aF-0.001
aF-0.001
aF-0.001
aF-0.001
aF-0.001
aF-0.001
aF-0.001
aF-0.001
aF-0.001
aF-0.001
aF-0.001
aF-0.001
aF-0.001
aF-0.001
aF-0.001
aF-0.001
aF-0.001
aF-0.001
aF-0.001
aF-0.001
aF-0.001
aF-0.001
aF-0.001
aF-0.001
aF-0.001
aF-0.001
aF-0.001
aF-0.001
aF-0.001
aF-0.001
aF-0.001
aF-0.001
aF-0.001
aF-0.001
aF-0.001
aF-0.001
aF-0.001
aF-0.001
aF-0.001
aF-0.001
aF-0.001
aF-0.001
aF-0.001
aa(lp178
F-0.001
aF-0.001
aF-0.001
aF-0.001
aF-0.001
aF-0.001
aF-0.001
aF-0.001
aF-0.001
aF-0.001
aF-0.001
aF-0.001
aF-0.001
aF-0.001
aF-0.001
aF-0.001
aF-0.001
aF-0.001
aF-0.001
aF-0.001
aF-0.001
aF-0.001
aF-0.001
aF-0.001
aF-0.001
aF-0.001
aF-0.001
aF-0.001
aF-0.001
aF-0.001
aF-0.001
aF-0.001
aF-0.001
aF-0.001
aF-0.001
aF-0.001
aF-0.001
aF-0.001
aF-0.001
aF-0.001
aF-0.001
aF-0.001
aF-0.001
aF-0.001
aF-0.001
aF-0.001
aF-0.001
aF-0.001
aF-0.001
aF-0.001
aF-0.001
aF-0.001
aF-0.001
aF-0.001
aF-0.001
aF-0.001
aF-0.001
aF-0.001
aF-0.001
aF-0.001
aa(lp179
F-0.001
aF-0.001
aF-0.001
aF-0.001
aF-0.001
aF-0.001
aF-0.001
aF-0.001
aF-0.001
aF-0.001
aF-0.001
aF-0.001
aF-0.001
aF-0.001
aF-0.001
aF-0.001
aF-0.001
aF-0.001
aF-0.001
aF-0.001
aF-0.001
aF-0.001
aF-0.001
aF-0.001
aF-0.001
aF-0.001
aF-0.001
aF-0.001
aF-0.001
aF-0.001
aF-0.001
aF-0.001
aF-0.001
aF-0.001
aF-0.001
aF-0.001
aF-0.001
aF-0.001
aF-0.001
aF-0.001
aF-0.001
aF-0.001
aF-0.001
aF-0.001
aF-0.001
aF-0.001
aF-0.001
aF-0.001
aF-0.001
aF-0.001
aF-0.001
aF-0.001
aF-0.001
aF-0.001
aF-0.001
aF-0.001
aF-0.001
aF-0.001
aF-0.001
aF-0.001
aF-0.001
aF-0.001
aF-0.001
aa(lp180
F-0.001
aF-0.001
aF-0.001
aF-0.001
aF-0.001
aF-0.001
aF-0.001
aF-0.001
aF-0.001
aF-0.001
aF-0.001
aF-0.001
aF-0.001
aF-0.001
aF-0.001
aF-0.001
aF-0.001
aF-0.001
aF-0.001
aF-0.001
aF-0.001
aF-0.001
aF-0.001
aF-0.001
aF-0.001
aF-0.001
aF-0.001
aF-0.001
aF-0.001
aF-0.001
aF-0.001
aF-0.001
aF-0.001
aF-0.001
aF-0.001
aF-0.001
aF-0.001
aF-0.001
aF-0.001
aF-0.001
aF-0.001
aF-0.001
aF-0.001
aF-0.001
aF-0.001
aF-0.001
aF-0.001
aF-0.001
aF-0.001
aF-0.001
aF-0.001
aF-0.001
aF-0.001
aa(lp181
F-0.001
aF-0.001
aF-0.001
aF-0.001
aF-0.001
aF-0.001
aF-0.001
aF-0.001
aF-0.001
aF-0.001
aF-0.001
aF-0.001
aF-0.001
aF-0.001
aF-0.001
aF-0.001
aF-0.001
aF-0.001
aF-0.001
aF-0.001
aF-0.001
aF-0.001
aF-0.001
aF-0.001
aF-0.001
aF-0.001
aF-0.001
aF-0.001
aF-0.001
aF-0.001
aF-0.001
aF-0.001
aF-0.001
aF-0.001
aF-0.001
aF-0.001
aF-0.001
aF-0.001
aF-0.001
aF-0.001
aF-0.001
aF-0.001
aF-0.001
aF-0.001
aF-0.001
aF-0.001
aF-0.001
aa(lp182
F-0.001
aF-0.001
aF-0.001
aF-0.001
aF-0.001
aF-0.001
aF-0.001
aF-0.001
aF-0.001
aF-0.001
aF-0.001
aF-0.001
aF-0.001
aF-0.001
aF-0.001
aF-0.001
aF-0.001
aF-0.001
aF-0.001
aF-0.001
aF-0.001
aF-0.001
aF-0.001
aF-0.001
aF-0.001
aF-0.001
aF-0.001
aF-0.001
aF-0.001
aF-0.001
aF-0.001
aF-0.001
aF-0.001
aF-0.001
aF-0.001
aF-0.001
aF-0.001
aF-0.001
aF-0.001
aF-0.001
aF-0.001
aF-0.001
aF-0.001
aF-0.001
aF-0.001
aF-0.001
aF-0.001
aF-0.001
aF-0.001
aF-0.001
aF-0.001
aF-0.001
aF-0.001
aF-0.001
aF-0.001
aF-0.001
aF-0.001
aF-0.001
aF-0.001
aF-0.001
aa(lp183
F-0.001
aF-0.001
aF-0.001
aF-0.001
aF-0.001
aF-0.001
aF-0.001
aF-0.001
aF-0.001
aF-0.001
aF-0.001
aF-0.001
aF-0.001
aF-0.001
aF-0.001
aF-0.001
aF-0.001
aF-0.001
aF-0.001
aF-0.001
aF-0.001
aF-0.001
aF-0.001
aF-0.001
aF-0.001
aF-0.001
aF-0.001
aF-0.001
aF-0.001
aF-0.001
aF-0.001
aF-0.001
aF-0.001
aF-0.001
aF-0.001
aF-0.001
aF-0.001
aF-0.001
aF-0.001
aF-0.001
aF-0.001
aF-0.001
aF-0.001
aF-0.001
aF-0.001
aF-0.001
aF-0.001
aF-0.001
aF-0.001
aF-0.001
aF-0.001
aF-0.001
aF-0.001
aF-0.001
aF-0.001
aF-0.001
aF-0.001
aF-0.001
aF-0.001
aF-0.001
aF-0.001
aF-0.001
aF-0.001
aF-0.001
aF-0.001
aF-0.001
aF-0.001
aF-0.001
aF-0.001
aF-0.001
aF-0.001
aF-0.001
aF-0.001
aF-0.001
aF-0.001
aa(lp184
F-0.001
aF-0.001
aF-0.001
aF-0.001
aF-0.001
aF-0.001
aF-0.001
aF-0.001
aF-0.001
aF-0.001
aF-0.001
aF-0.001
aF-0.001
aF-0.001
aF-0.001
aF-0.001
aF-0.001
aF-0.001
aF-0.001
aF-0.001
aF-0.001
aF-0.001
aF-0.001
aF-0.001
aF-0.001
aF-0.001
aF-0.001
aF-0.001
aF-0.001
aF-0.001
aF-0.001
aF-0.001
aF-0.001
aF-0.001
aF-0.001
aF-0.001
aF-0.001
aF-0.001
aF-0.001
aF-0.001
aF-0.001
aF-0.001
aF-0.001
aF-0.001
aF-0.001
aa(lp185
F-0.001
aF-0.001
aF-0.001
aF-0.001
aF-0.001
aF-0.001
aF-0.001
aF-0.001
aF-0.001
aF-0.001
aF-0.001
aF-0.001
aF-0.001
aF-0.001
aF-0.001
aF-0.001
aF-0.001
aF-0.001
aF-0.001
aF-0.001
aF-0.001
aF-0.001
aF-0.001
aF-0.001
aF-0.001
aF-0.001
aF-0.001
aF-0.001
aF-0.001
aF-0.001
aF-0.001
aF-0.001
aF-0.001
aF-0.001
aF-0.001
aF-0.001
aF-0.001
aF-0.001
aF-0.001
aF-0.001
aF-0.001
aF-0.001
aF-0.001
aF-0.001
aF-0.001
aF-0.001
aF-0.001
aF-0.001
aF-0.001
aF-0.001
aF-0.001
aF-0.001
aF-0.001
aF-0.001
aF-0.001
aF-0.001
aF-0.001
aF-0.001
aF-0.001
aF-0.001
aF-0.001
aF-0.001
aa(lp186
F-0.001
aF-0.001
aF-0.001
aF-0.001
aF-0.001
aF-0.001
aF-0.001
aF-0.001
aF-0.001
aF-0.001
aF-0.001
aF-0.001
aF-0.001
aF-0.001
aF-0.001
aF-0.001
aF-0.001
aF-0.001
aF-0.001
aF-0.001
aF-0.001
aF-0.001
aF-0.001
aF-0.001
aF-0.001
aF-0.001
aF-0.001
aF-0.001
aF-0.001
aF-0.001
aF-0.001
aF-0.001
aF-0.001
aF-0.001
aF-0.001
aF-0.001
aF-0.001
aF-0.001
aF-0.001
aF-0.001
aF-0.001
aF-0.001
aF-0.001
aF-0.001
aF-0.001
aF-0.001
aF-0.001
aF-0.001
aF-0.001
aF-0.001
aF-0.001
aF-0.001
aF-0.001
aF-0.001
aF-0.001
aF-0.001
aF-0.001
aF-0.001
aF-0.001
aF-0.001
aF-0.001
aF-0.001
aF-0.001
aF-0.001
aa(lp187
F-0.001
aF-0.001
aF-0.001
aF-0.001
aF-0.001
aF-0.001
aF-0.001
aF-0.001
aF-0.001
aF-0.001
aF-0.001
aF-0.001
aF-0.001
aF-0.001
aF-0.001
aF-0.001
aF-0.001
aF-0.001
aF-0.001
aF-0.001
aF-0.001
aF-0.001
aF-0.001
aF-0.001
aF-0.001
aF-0.001
aF-0.001
aF-0.001
aF-0.001
aF-0.001
aF-0.001
aF-0.001
aF-0.001
aF-0.001
aF-0.001
aF-0.001
aF-0.001
aF-0.001
aF-0.001
aF-0.001
aF-0.001
aF-0.001
aF-0.001
aF-0.001
aF-0.001
aF-0.001
aF-0.001
aF-0.001
aF-0.001
aF-0.001
aF-0.001
aF-0.001
aF-0.001
aF-0.001
aF-0.001
aF-0.001
aF-0.001
aF-0.001
aF-0.001
aF-0.001
aF-0.001
aa(lp188
F-0.001
aF-0.001
aF-0.001
aF-0.001
aF-0.001
aF-0.001
aF-0.001
aF-0.001
aF-0.001
aF-0.001
aF-0.001
aF-0.001
aF-0.001
aF-0.001
aF-0.001
aF-0.001
aF-0.001
aF-0.001
aF-0.001
aF-0.001
aF-0.001
aF-0.001
aF-0.001
aF-0.001
aF-0.001
aF-0.001
aF-0.001
aF-0.001
aF-0.001
aF-0.001
aF-0.001
aF-0.001
aF-0.001
aF-0.001
aF-0.001
aF-0.001
aF-0.001
aF-0.001
aF-0.001
aF-0.001
aF-0.001
aF-0.001
aF-0.001
aF-0.001
aF-0.001
aF-0.001
aF-0.001
aa(lp189
F-0.001
aF-0.001
aF-0.001
aF-0.001
aF-0.001
aF-0.001
aF-0.001
aF-0.001
aF-0.001
aF-0.001
aF-0.001
aF-0.001
aF-0.001
aF-0.001
aF-0.001
aF-0.001
aF-0.001
aF-0.001
aF-0.001
aF-0.001
aF-0.001
aF-0.001
aF-0.001
aF-0.001
aF-0.001
aF-0.001
aF-0.001
aF-0.001
aF-0.001
aF-0.001
aF-0.001
aF-0.001
aF-0.001
aF-0.001
aF-0.001
aF-0.001
aF-0.001
aF-0.001
aF-0.001
aF-0.001
aF-0.001
aF-0.001
aF-0.001
aF-0.001
aF-0.001
aF-0.001
aF-0.001
aF-0.001
aa(lp190
F-0.001
aF-0.001
aF-0.001
aF-0.001
aF-0.001
aF-0.001
aF-0.001
aF-0.001
aF-0.001
aF-0.001
aF-0.001
aF-0.001
aF-0.001
aF-0.001
aF-0.001
aF-0.001
aF-0.001
aF-0.001
aF-0.001
aF-0.001
aF-0.001
aF-0.001
aF-0.001
aF-0.001
aF-0.001
aF-0.001
aF-0.001
aF-0.001
aF-0.001
aF-0.001
aF-0.001
aF-0.001
aF-0.001
aF-0.001
aF-0.001
aF-0.001
aF-0.001
aF-0.001
aF-0.001
aF-0.001
aF-0.001
aF-0.001
aF-0.001
aF-0.001
aF-0.001
aF-0.001
aF-0.001
aF-0.001
aF-0.001
aa(lp191
F-0.001
aF-0.001
aF-0.001
aF-0.001
aF-0.001
aF-0.001
aF-0.001
aF-0.001
aF-0.001
aF-0.001
aF-0.001
aF-0.001
aF-0.001
aF-0.001
aF-0.001
aF-0.001
aF-0.001
aF-0.001
aF-0.001
aF-0.001
aF-0.001
aF-0.001
aF-0.001
aF-0.001
aF-0.001
aF-0.001
aF-0.001
aF-0.001
aF-0.001
aF-0.001
aF-0.001
aF-0.001
aF-0.001
aF-0.001
aF-0.001
aF-0.001
aF-0.001
aF-0.001
aF-0.001
aF-0.001
aF-0.001
aF-0.001
aF-0.001
aF-0.001
aF-0.001
aF-0.001
aF-0.001
aF-0.001
aF-0.001
aF-0.001
aF-0.001
aF-0.001
aF-0.001
aF-0.001
aF-0.001
aF-0.001
aa(lp192
F-0.001
aF-0.001
aF-0.001
aF-0.001
aF-0.001
aF-0.001
aF-0.001
aF-0.001
aF-0.001
aF-0.001
aF-0.001
aF-0.001
aF-0.001
aF-0.001
aF-0.001
aF-0.001
aF-0.001
aF-0.001
aF-0.001
aF-0.001
aF-0.001
aF-0.001
aF-0.001
aF-0.001
aF-0.001
aF-0.001
aF-0.001
aF-0.001
aF-0.001
aF-0.001
aF-0.001
aF-0.001
aF-0.001
aF-0.001
aF-0.001
aF-0.001
aF-0.001
aF-0.001
aF-0.001
aF-0.001
aF-0.001
aF-0.001
aF-0.001
aF-0.001
aF-0.001
aF-0.001
aF-0.001
aF-0.001
aF-0.001
aF-0.001
aF-0.001
aF-0.001
aF-0.001
aF-0.001
aF-0.001
aa(lp193
F-0.001
aF-0.001
aF-0.001
aF-0.001
aF-0.001
aF-0.001
aF-0.001
aF-0.001
aF-0.001
aF-0.001
aF-0.001
aF-0.001
aF-0.001
aF-0.001
aF-0.001
aF-0.001
aF-0.001
aF-0.001
aF-0.001
aF-0.001
aF-0.001
aF-0.001
aF-0.001
aF-0.001
aF-0.001
aF-0.001
aF-0.001
aF-0.001
aF-0.001
aF-0.001
aF-0.001
aF-0.001
aF-0.001
aF-0.001
aF-0.001
aF-0.001
aF-0.001
aF-0.001
aF-0.001
aF-0.001
aF-0.001
aF-0.001
aF-0.001
aF-0.001
aF-0.001
aF-0.001
aF-0.001
aF-0.001
aF-0.001
aF-0.001
aF-0.001
aF-0.001
aF-0.001
aF-0.001
aF-0.001
aF-0.001
aF-0.001
aF-0.001
aF-0.001
aF-0.001
aF-0.001
aF-0.001
aF-0.001
aF-0.001
aF-0.001
aF-0.001
aF-0.001
aF-0.001
aF-0.001
aa(lp194
F-0.001
aF-0.001
aF-0.001
aF-0.001
aF-0.001
aF-0.001
aF-0.001
aF-0.001
aF-0.001
aF-0.001
aF-0.001
aF-0.001
aF-0.001
aF-0.001
aF-0.001
aF-0.001
aF-0.001
aF-0.001
aF-0.001
aF-0.001
aF-0.001
aF-0.001
aF-0.001
aF-0.001
aF-0.001
aF-0.001
aF-0.001
aF-0.001
aF-0.001
aF-0.001
aF-0.001
aF-0.001
aF-0.001
aF-0.001
aF-0.001
aF-0.001
aF-0.001
aF-0.001
aF-0.001
aF-0.001
aF-0.001
aF-0.001
aF-0.001
aa(lp195
F-0.001
aF-0.001
aF-0.001
aF-0.001
aF-0.001
aF-0.001
aF-0.001
aF-0.001
aF-0.001
aF-0.001
aF-0.001
aF-0.001
aF-0.001
aF-0.001
aF-0.001
aF-0.001
aF-0.001
aF-0.001
aF-0.001
aF-0.001
aF-0.001
aF-0.001
aF-0.001
aF-0.001
aF-0.001
aF-0.001
aF-0.001
aF-0.001
aF-0.001
aF-0.001
aF-0.001
aF-0.001
aF-0.001
aF-0.001
aF-0.001
aF-0.001
aF-0.001
aF-0.001
aF-0.001
aF-0.001
aF-0.001
aF-0.001
aF-0.001
aF-0.001
aF-0.001
aF-0.001
aF-0.001
aF-0.001
aF-0.001
aF-0.001
aF-0.001
aF-0.001
aF-0.001
aF-0.001
aF-0.001
aF-0.001
aF-0.001
aF-0.001
aF-0.001
aF-0.001
aa(lp196
F-0.001
aF-0.001
aF-0.001
aF-0.001
aF-0.001
aF-0.001
aF-0.001
aF-0.001
aF-0.001
aF-0.001
aF-0.001
aF-0.001
aF-0.001
aF-0.001
aF-0.001
aF-0.001
aF-0.001
aF-0.001
aF-0.001
aF-0.001
aF-0.001
aF-0.001
aF-0.001
aF-0.001
aF-0.001
aF-0.001
aF-0.001
aF-0.001
aF-0.001
aF-0.001
aF-0.001
aF-0.001
aF-0.001
aF-0.001
aF-0.001
aF-0.001
aF-0.001
aF-0.001
aF-0.001
aF-0.001
aF-0.001
aF-0.001
aF-0.001
aF-0.001
aF-0.001
aF-0.001
aF-0.001
aF-0.001
aF-0.001
aF-0.001
aF-0.001
aF-0.001
aF-0.001
aF-0.001
aF-0.001
aF-0.001
aF-0.001
aF-0.001
aF-0.001
aF-0.001
aF-0.001
aF-0.001
aF-0.001
aF-0.001
aF-0.001
aF-0.001
aF-0.001
aa(lp197
F-0.001
aF-0.001
aF-0.001
aF-0.001
aF-0.001
aF-0.001
aF-0.001
aF-0.001
aF-0.001
aF-0.001
aF-0.001
aF-0.001
aF-0.001
aF-0.001
aF-0.001
aF-0.001
aF-0.001
aF-0.001
aF-0.001
aF-0.001
aF-0.001
aF-0.001
aF-0.001
aF-0.001
aF-0.001
aF-0.001
aF-0.001
aF-0.001
aF-0.001
aF-0.001
aF-0.001
aF-0.001
aF-0.001
aF-0.001
aF-0.001
aF-0.001
aF-0.001
aF-0.001
aF-0.001
aF-0.001
aF-0.001
aF-0.001
aF-0.001
aF-0.001
aF-0.001
aF-0.001
aF-0.001
aF-0.001
aF-0.001
aF-0.001
aF-0.001
aF-0.001
aF-0.001
aF-0.001
aa(lp198
F-0.001
aF-0.001
aF-0.001
aF-0.001
aF-0.001
aF-0.001
aF-0.001
aF-0.001
aF-0.001
aF-0.001
aF-0.001
aF-0.001
aF-0.001
aF-0.001
aF-0.001
aF-0.001
aF-0.001
aF-0.001
aF-0.001
aF-0.001
aF-0.001
aF-0.001
aF-0.001
aF-0.001
aF-0.001
aF-0.001
aF-0.001
aF-0.001
aF-0.001
aF-0.001
aF-0.001
aF-0.001
aF-0.001
aF-0.001
aF-0.001
aF-0.001
aF-0.001
aF-0.001
aF-0.001
aF-0.001
aF-0.001
aF-0.001
aF-0.001
aF-0.001
aF-0.001
aF-0.001
aF-0.001
aF-0.001
aF-0.001
aF-0.001
aF-0.001
aF-0.001
aF-0.001
aF-0.001
aF-0.001
aF-0.001
aF-0.001
aF-0.001
aF-0.001
aF-0.001
aF-0.001
aF-0.001
aF-0.001
aF-0.001
aatp199
bsS'init_kwds'
p200
(dp201
sb.