ccopy_reg
_reconstructor
p0
(cbrian.connections.constructionmatrix
SparseConstructionMatrix
p1
c__builtin__
object
p2
Ntp3
Rp4
(dp5
S'rows'
p6
cnumpy.core.multiarray
_reconstruct
p7
(cnumpy
ndarray
p8
(I0
tp9
S'b'
p10
tp11
Rp12
(I1
(I80
tp13
cnumpy
dtype
p14
(S'O8'
p15
I0
I1
tp16
Rp17
(I3
S'|'
p18
NNNI-1
I-1
I63
tp19
bI00
(lp20
(lp21
I1
aI3
aI14
aI24
aI25
aI37
aI41
aI50
aI53
aI55
aI73
aI75
aI88
aI93
aI98
aI110
aI114
aI116
aI118
aI120
aI123
aI131
aI136
aI139
aI148
aI149
aI164
aI165
aI166
aI168
aI175
aI176
aI180
aI182
aI184
aI194
aI199
aI200
aI217
aI222
aI226
aI227
aI228
aI231
aI235
aI236
aI238
aI241
aI251
aI252
aI262
aI263
aI269
aI270
aI272
aI276
aI280
aI296
aI300
aI301
aI314
aI324
aI325
aI336
aI340
aI351
aI353
aI358
aI364
aI365
aI370
aI373
aI379
aI380
aI391
aI395
aa(lp22
I12
aI15
aI17
aI29
aI82
aI86
aI87
aI91
aI103
aI109
aI113
aI118
aI127
aI130
aI141
aI143
aI153
aI158
aI175
aI181
aI183
aI189
aI203
aI204
aI220
aI221
aI222
aI235
aI249
aI253
aI265
aI279
aI281
aI288
aI294
aI296
aI298
aI301
aI303
aI308
aI309
aI311
aI320
aI322
aI329
aI334
aI350
aI358
aI365
aI366
aI379
aI381
aI382
aa(lp23
I17
aI19
aI27
aI49
aI54
aI58
aI64
aI69
aI70
aI80
aI92
aI97
aI109
aI110
aI118
aI124
aI125
aI126
aI133
aI143
aI148
aI153
aI158
aI159
aI169
aI179
aI184
aI206
aI207
aI216
aI218
aI228
aI229
aI230
aI231
aI234
aI236
aI238
aI253
aI258
aI260
aI264
aI270
aI272
aI273
aI287
aI289
aI292
aI293
aI306
aI327
aI331
aI333
aI335
aI339
aI350
aI355
aI361
aI363
aI373
aI378
aI389
aI395
aa(lp24
I7
aI23
aI24
aI36
aI37
aI38
aI40
aI44
aI48
aI55
aI56
aI62
aI64
aI66
aI76
aI96
aI100
aI102
aI105
aI106
aI112
aI114
aI129
aI138
aI141
aI150
aI155
aI179
aI182
aI188
aI199
aI218
aI219
aI224
aI234
aI255
aI261
aI262
aI290
aI309
aI316
aI321
aI323
aI334
aI343
aI346
aI352
aI373
aI375
aI376
aI378
aI385
aI388
aI395
aa(lp25
I3
aI4
aI5
aI6
aI8
aI15
aI21
aI22
aI42
aI53
aI55
aI63
aI74
aI75
aI87
aI90
aI91
aI97
aI105
aI110
aI120
aI124
aI127
aI130
aI137
aI141
aI142
aI143
aI151
aI158
aI159
aI161
aI173
aI176
aI195
aI198
aI204
aI209
aI211
aI213
aI215
aI220
aI221
aI224
aI241
aI261
aI271
aI274
aI290
aI292
aI296
aI299
aI309
aI316
aI337
aI358
aI366
aI367
aI372
aI385
aI386
aI393
aa(lp26
I2
aI3
aI10
aI16
aI22
aI27
aI28
aI29
aI34
aI44
aI52
aI55
aI56
aI57
aI60
aI62
aI68
aI82
aI84
aI87
aI89
aI91
aI92
aI102
aI105
aI108
aI114
aI115
aI118
aI119
aI136
aI141
aI149
aI154
aI156
aI164
aI166
aI168
aI192
aI195
aI200
aI201
aI207
aI208
aI215
aI228
aI237
aI238
aI240
aI241
aI254
aI256
aI259
aI267
aI276
aI314
aI317
aI318
aI319
aI322
aI323
aI330
aI336
aI343
aI345
aI348
aI352
aI356
aI363
aI373
aI383
aI389
aI396
aI398
aa(lp27
I2
aI9
aI14
aI15
aI19
aI23
aI24
aI33
aI35
aI37
aI44
aI47
aI56
aI60
aI62
aI66
aI80
aI81
aI91
aI100
aI104
aI105
aI115
aI116
aI120
aI126
aI127
aI129
aI140
aI141
aI143
aI153
aI162
aI163
aI165
aI172
aI193
aI198
aI210
aI213
aI226
aI229
aI230
aI231
aI235
aI240
aI241
aI249
aI258
aI259
aI260
aI262
aI265
aI268
aI271
aI281
aI282
aI283
aI293
aI295
aI300
aI319
aI328
aI350
aI355
aI357
aI359
aI364
aI367
aI371
aI372
aI375
aI377
aI384
aI392
aI393
aa(lp28
I3
aI12
aI17
aI45
aI54
aI55
aI60
aI61
aI68
aI70
aI80
aI89
aI91
aI97
aI99
aI108
aI109
aI122
aI123
aI132
aI142
aI148
aI149
aI152
aI158
aI172
aI174
aI177
aI178
aI180
aI181
aI195
aI205
aI212
aI215
aI216
aI218
aI230
aI231
aI232
aI246
aI255
aI256
aI258
aI306
aI310
aI314
aI324
aI330
aI334
aI335
aI341
aI342
aI350
aI355
aI369
aI377
aI381
aI384
aI392
aI394
aa(lp29
I17
aI31
aI49
aI50
aI51
aI67
aI73
aI77
aI81
aI97
aI100
aI109
aI116
aI117
aI137
aI139
aI146
aI153
aI163
aI164
aI181
aI183
aI187
aI188
aI199
aI204
aI211
aI218
aI220
aI227
aI237
aI240
aI244
aI247
aI250
aI267
aI274
aI279
aI289
aI298
aI299
aI314
aI318
aI323
aI331
aI333
aI338
aI340
aI341
aI352
aI371
aI387
aI397
aa(lp30
I4
aI6
aI11
aI12
aI13
aI16
aI17
aI24
aI37
aI41
aI48
aI66
aI74
aI75
aI82
aI86
aI106
aI110
aI113
aI119
aI134
aI150
aI151
aI154
aI167
aI168
aI174
aI175
aI183
aI184
aI188
aI193
aI197
aI198
aI203
aI211
aI213
aI216
aI219
aI221
aI236
aI237
aI252
aI258
aI276
aI288
aI302
aI303
aI312
aI320
aI326
aI329
aI340
aI349
aI355
aI357
aI360
aI363
aI364
aI371
aI376
aI396
aa(lp31
I5
aI9
aI10
aI16
aI20
aI25
aI41
aI42
aI43
aI49
aI50
aI64
aI65
aI68
aI69
aI70
aI71
aI73
aI88
aI92
aI95
aI97
aI104
aI110
aI111
aI112
aI121
aI131
aI138
aI148
aI156
aI157
aI158
aI161
aI163
aI173
aI192
aI198
aI214
aI219
aI222
aI224
aI227
aI231
aI238
aI243
aI248
aI250
aI255
aI267
aI279
aI284
aI287
aI289
aI302
aI322
aI324
aI334
aI344
aI356
aI377
aI378
aI382
aI387
aI394
aI398
aa(lp32
I0
aI7
aI8
aI11
aI13
aI16
aI28
aI56
aI58
aI63
aI67
aI73
aI80
aI90
aI103
aI106
aI107
aI111
aI132
aI141
aI153
aI154
aI159
aI161
aI165
aI181
aI190
aI195
aI198
aI200
aI206
aI220
aI221
aI225
aI238
aI240
aI248
aI249
aI252
aI257
aI273
aI284
aI290
aI292
aI293
aI337
aI340
aI344
aI351
aI352
aI371
aI372
aI374
aI380
aI383
aI384
aI389
aI393
aa(lp33
I5
aI21
aI25
aI46
aI53
aI55
aI60
aI61
aI63
aI73
aI75
aI87
aI95
aI97
aI102
aI116
aI122
aI126
aI128
aI129
aI133
aI137
aI145
aI146
aI150
aI153
aI154
aI162
aI172
aI185
aI188
aI190
aI191
aI196
aI199
aI201
aI202
aI208
aI213
aI216
aI219
aI221
aI224
aI225
aI226
aI229
aI238
aI245
aI251
aI259
aI272
aI283
aI289
aI291
aI292
aI296
aI299
aI300
aI301
aI304
aI308
aI315
aI320
aI325
aI333
aI334
aI347
aI348
aI354
aI359
aI360
aI363
aI375
aI391
aa(lp34
I6
aI7
aI8
aI24
aI27
aI35
aI37
aI42
aI45
aI53
aI56
aI58
aI59
aI65
aI72
aI74
aI77
aI78
aI82
aI89
aI94
aI97
aI109
aI112
aI117
aI122
aI142
aI149
aI163
aI175
aI185
aI190
aI193
aI198
aI203
aI206
aI213
aI223
aI238
aI240
aI243
aI251
aI263
aI273
aI277
aI281
aI285
aI289
aI296
aI300
aI314
aI321
aI326
aI328
aI340
aI347
aI349
aI357
aI374
aI385
aI389
aI391
aI392
aa(lp35
I35
aI36
aI42
aI45
aI60
aI61
aI65
aI68
aI73
aI87
aI96
aI111
aI115
aI130
aI139
aI140
aI141
aI142
aI149
aI150
aI155
aI157
aI159
aI169
aI173
aI174
aI197
aI204
aI214
aI220
aI232
aI237
aI240
aI241
aI258
aI260
aI266
aI288
aI289
aI290
aI291
aI299
aI312
aI316
aI325
aI326
aI331
aI336
aI337
aI339
aI342
aI357
aI373
aI376
aI381
aa(lp36
I3
aI9
aI12
aI14
aI24
aI28
aI36
aI45
aI50
aI57
aI61
aI62
aI66
aI73
aI75
aI77
aI83
aI90
aI95
aI109
aI117
aI136
aI137
aI140
aI144
aI153
aI163
aI171
aI174
aI176
aI184
aI188
aI191
aI197
aI198
aI203
aI205
aI220
aI226
aI229
aI240
aI257
aI259
aI262
aI267
aI268
aI269
aI277
aI281
aI285
aI294
aI297
aI302
aI304
aI310
aI313
aI317
aI318
aI324
aI325
aI326
aI329
aI344
aI346
aI358
aI365
aI366
aI372
aI375
aI385
aa(lp37
I2
aI3
aI5
aI8
aI11
aI17
aI21
aI25
aI26
aI32
aI55
aI57
aI63
aI65
aI66
aI70
aI74
aI91
aI94
aI104
aI115
aI117
aI119
aI124
aI131
aI137
aI142
aI147
aI156
aI158
aI167
aI173
aI175
aI179
aI182
aI189
aI194
aI209
aI210
aI211
aI228
aI234
aI238
aI240
aI243
aI253
aI260
aI262
aI266
aI269
aI270
aI275
aI277
aI280
aI281
aI285
aI294
aI297
aI303
aI310
aI314
aI315
aI339
aI342
aI354
aI359
aI396
aa(lp38
I4
aI9
aI11
aI39
aI45
aI47
aI48
aI65
aI76
aI82
aI100
aI118
aI119
aI132
aI134
aI144
aI151
aI157
aI164
aI168
aI172
aI176
aI179
aI186
aI190
aI205
aI206
aI209
aI210
aI212
aI213
aI215
aI218
aI219
aI241
aI243
aI250
aI272
aI281
aI283
aI284
aI285
aI293
aI296
aI302
aI305
aI306
aI318
aI330
aI352
aI358
aI359
aI374
aI389
aI393
aa(lp39
I1
aI11
aI17
aI19
aI21
aI22
aI25
aI35
aI42
aI45
aI53
aI54
aI61
aI63
aI71
aI76
aI89
aI91
aI98
aI102
aI103
aI106
aI124
aI134
aI137
aI142
aI163
aI178
aI182
aI186
aI192
aI202
aI206
aI224
aI232
aI238
aI251
aI260
aI261
aI263
aI275
aI285
aI286
aI302
aI308
aI311
aI316
aI319
aI330
aI338
aI351
aI359
aI389
aa(lp40
I1
aI4
aI10
aI14
aI19
aI22
aI30
aI37
aI40
aI42
aI49
aI52
aI53
aI58
aI66
aI67
aI73
aI79
aI87
aI91
aI92
aI94
aI101
aI109
aI110
aI115
aI126
aI127
aI129
aI144
aI145
aI153
aI158
aI172
aI190
aI197
aI217
aI221
aI227
aI228
aI229
aI235
aI254
aI260
aI271
aI274
aI276
aI281
aI296
aI306
aI328
aI350
aI360
aI370
aI377
aI379
aI384
aI391
aa(lp41
I12
aI13
aI19
aI20
aI21
aI25
aI26
aI35
aI36
aI38
aI39
aI58
aI61
aI67
aI76
aI79
aI82
aI83
aI86
aI90
aI98
aI108
aI111
aI123
aI134
aI136
aI141
aI147
aI148
aI152
aI160
aI162
aI163
aI176
aI182
aI184
aI190
aI193
aI199
aI212
aI219
aI221
aI224
aI238
aI240
aI248
aI249
aI251
aI259
aI264
aI269
aI275
aI276
aI286
aI287
aI299
aI301
aI305
aI306
aI317
aI328
aI333
aI347
aI352
aI360
aI363
aI366
aI383
aI386
aI394
aa(lp42
I1
aI3
aI8
aI17
aI20
aI36
aI38
aI39
aI40
aI45
aI54
aI56
aI70
aI73
aI84
aI86
aI88
aI93
aI96
aI111
aI114
aI135
aI155
aI162
aI164
aI166
aI173
aI201
aI202
aI208
aI209
aI212
aI226
aI227
aI258
aI264
aI265
aI270
aI273
aI274
aI276
aI284
aI285
aI292
aI293
aI294
aI295
aI298
aI308
aI324
aI332
aI333
aI334
aI340
aI348
aI349
aI350
aI351
aI358
aI363
aI369
aI371
aI380
aI382
aI388
aI396
aI397
aI398
aI399
aa(lp43
I5
aI6
aI7
aI8
aI10
aI17
aI19
aI23
aI25
aI30
aI37
aI38
aI39
aI45
aI57
aI74
aI86
aI88
aI91
aI93
aI104
aI128
aI129
aI131
aI134
aI151
aI154
aI158
aI160
aI166
aI174
aI179
aI184
aI185
aI193
aI195
aI197
aI201
aI207
aI216
aI222
aI236
aI244
aI247
aI248
aI250
aI251
aI253
aI254
aI256
aI274
aI283
aI287
aI296
aI300
aI304
aI305
aI311
aI318
aI330
aI339
aI355
aI367
aI376
aI378
aI380
aI391
aa(lp44
I0
aI18
aI25
aI49
aI50
aI55
aI59
aI68
aI72
aI83
aI87
aI88
aI91
aI94
aI96
aI112
aI126
aI128
aI133
aI154
aI159
aI164
aI170
aI177
aI179
aI180
aI188
aI196
aI205
aI210
aI211
aI219
aI223
aI227
aI229
aI230
aI232
aI236
aI238
aI245
aI250
aI251
aI254
aI257
aI261
aI266
aI267
aI268
aI271
aI272
aI289
aI295
aI298
aI312
aI331
aI355
aI363
aI367
aI371
aI374
aI376
aI384
aa(lp45
I2
aI8
aI9
aI10
aI19
aI20
aI21
aI41
aI42
aI61
aI64
aI75
aI85
aI88
aI97
aI99
aI101
aI105
aI127
aI128
aI132
aI139
aI147
aI156
aI157
aI165
aI177
aI185
aI189
aI190
aI193
aI200
aI201
aI207
aI231
aI232
aI233
aI236
aI239
aI247
aI253
aI258
aI269
aI274
aI286
aI297
aI298
aI299
aI300
aI305
aI311
aI322
aI324
aI325
aI329
aI330
aI333
aI341
aI343
aI344
aI352
aI353
aI354
aI355
aI362
aI371
aI381
aI385
aI386
aI395
aI396
aI398
aa(lp46
I3
aI23
aI27
aI33
aI43
aI44
aI46
aI50
aI59
aI61
aI73
aI78
aI84
aI90
aI92
aI94
aI95
aI99
aI106
aI120
aI146
aI173
aI174
aI176
aI178
aI181
aI201
aI205
aI222
aI224
aI231
aI244
aI246
aI251
aI256
aI257
aI261
aI268
aI278
aI282
aI298
aI300
aI301
aI303
aI304
aI321
aI343
aI346
aI354
aI363
aI364
aI368
aI374
aI384
aI395
aa(lp47
I7
aI14
aI16
aI19
aI23
aI42
aI43
aI50
aI53
aI70
aI73
aI74
aI83
aI85
aI92
aI93
aI106
aI108
aI112
aI116
aI124
aI136
aI137
aI138
aI139
aI141
aI144
aI147
aI149
aI159
aI187
aI199
aI203
aI204
aI209
aI215
aI224
aI226
aI242
aI243
aI244
aI249
aI252
aI255
aI277
aI286
aI294
aI306
aI310
aI313
aI314
aI329
aI335
aI340
aI352
aI358
aI363
aI375
aI383
aI384
aa(lp48
I8
aI12
aI16
aI20
aI23
aI25
aI31
aI34
aI42
aI53
aI55
aI56
aI68
aI73
aI75
aI84
aI105
aI106
aI121
aI137
aI153
aI155
aI173
aI182
aI186
aI189
aI192
aI196
aI209
aI213
aI223
aI251
aI252
aI263
aI271
aI283
aI284
aI299
aI305
aI315
aI321
aI330
aI333
aI342
aI344
aI354
aI357
aI362
aI376
aI380
aI390
aa(lp49
I7
aI11
aI18
aI21
aI23
aI27
aI32
aI38
aI39
aI42
aI60
aI70
aI72
aI74
aI80
aI87
aI90
aI91
aI94
aI97
aI106
aI110
aI112
aI116
aI122
aI136
aI146
aI180
aI186
aI194
aI210
aI211
aI217
aI222
aI231
aI233
aI243
aI247
aI262
aI263
aI265
aI273
aI280
aI305
aI324
aI325
aI326
aI328
aI339
aI343
aI345
aI362
aI365
aI371
aI375
aI381
aI384
aI390
aa(lp50
I1
aI5
aI8
aI14
aI15
aI18
aI19
aI27
aI29
aI38
aI40
aI43
aI44
aI57
aI69
aI72
aI99
aI102
aI104
aI105
aI118
aI120
aI129
aI150
aI151
aI152
aI171
aI186
aI187
aI188
aI204
aI208
aI212
aI214
aI215
aI225
aI229
aI236
aI237
aI241
aI246
aI251
aI252
aI256
aI277
aI278
aI285
aI291
aI295
aI303
aI304
aI308
aI316
aI317
aI322
aI339
aI355
aI364
aI368
aI390
aI391
aI396
aa(lp51
I5
aI25
aI28
aI38
aI47
aI50
aI56
aI66
aI102
aI107
aI108
aI117
aI127
aI136
aI137
aI144
aI153
aI161
aI164
aI176
aI178
aI179
aI183
aI189
aI191
aI197
aI200
aI209
aI219
aI223
aI228
aI231
aI233
aI257
aI258
aI273
aI276
aI277
aI286
aI292
aI296
aI301
aI302
aI304
aI313
aI323
aI332
aI333
aI352
aI354
aI362
aI378
aI381
aI383
aI387
aa(lp52
I1
aI2
aI19
aI21
aI22
aI23
aI27
aI29
aI32
aI36
aI38
aI63
aI71
aI74
aI77
aI80
aI83
aI97
aI98
aI105
aI129
aI130
aI138
aI140
aI142
aI143
aI146
aI149
aI170
aI171
aI174
aI175
aI181
aI189
aI209
aI215
aI218
aI222
aI224
aI225
aI243
aI244
aI253
aI254
aI258
aI268
aI269
aI282
aI286
aI307
aI308
aI310
aI317
aI321
aI330
aI342
aI345
aI367
aI379
aI389
aI399
aa(lp53
I1
aI7
aI12
aI52
aI54
aI63
aI71
aI74
aI76
aI87
aI91
aI92
aI97
aI111
aI117
aI118
aI130
aI132
aI136
aI139
aI181
aI193
aI196
aI201
aI203
aI209
aI213
aI216
aI222
aI224
aI226
aI233
aI237
aI243
aI250
aI252
aI253
aI254
aI257
aI259
aI261
aI269
aI270
aI274
aI275
aI278
aI282
aI285
aI291
aI292
aI293
aI294
aI295
aI300
aI310
aI334
aI340
aI341
aI342
aI344
aI347
aI352
aI355
aI357
aI359
aI363
aI370
aI371
aI375
aI398
aa(lp54
I0
aI9
aI13
aI17
aI27
aI30
aI39
aI46
aI47
aI61
aI69
aI73
aI76
aI79
aI81
aI86
aI92
aI111
aI116
aI121
aI127
aI128
aI129
aI130
aI161
aI163
aI168
aI176
aI185
aI202
aI203
aI214
aI225
aI242
aI244
aI252
aI257
aI278
aI286
aI291
aI292
aI295
aI298
aI299
aI322
aI336
aI338
aI341
aI348
aI355
aI368
aI372
aI379
aI381
aI384
aI391
aI393
aI394
aI398
aa(lp55
I2
aI4
aI13
aI14
aI19
aI32
aI37
aI46
aI53
aI61
aI65
aI66
aI68
aI71
aI93
aI108
aI110
aI112
aI116
aI133
aI134
aI138
aI146
aI179
aI180
aI189
aI194
aI197
aI199
aI201
aI220
aI239
aI243
aI249
aI251
aI254
aI257
aI261
aI267
aI281
aI282
aI289
aI291
aI297
aI307
aI316
aI320
aI351
aI354
aI375
aI376
aI377
aI378
aI390
aI391
aI397
aa(lp56
I5
aI9
aI31
aI43
aI47
aI52
aI58
aI78
aI80
aI91
aI92
aI104
aI107
aI124
aI137
aI138
aI140
aI142
aI152
aI153
aI155
aI159
aI161
aI166
aI169
aI173
aI175
aI178
aI183
aI184
aI198
aI208
aI240
aI241
aI242
aI247
aI264
aI279
aI284
aI288
aI289
aI291
aI295
aI297
aI301
aI310
aI315
aI318
aI321
aI331
aI341
aI346
aI352
aI362
aI366
aI378
aI394
aa(lp57
I0
aI4
aI10
aI16
aI17
aI24
aI35
aI40
aI70
aI71
aI76
aI77
aI83
aI85
aI105
aI110
aI124
aI130
aI133
aI146
aI151
aI158
aI159
aI161
aI162
aI163
aI169
aI180
aI183
aI188
aI189
aI191
aI204
aI215
aI234
aI239
aI243
aI251
aI253
aI276
aI286
aI287
aI294
aI318
aI320
aI336
aI346
aI348
aI362
aI364
aI371
aI377
aI378
aI379
aI380
aI384
aI395
aI397
aa(lp58
I10
aI14
aI28
aI37
aI43
aI50
aI53
aI54
aI56
aI63
aI67
aI71
aI72
aI75
aI76
aI79
aI87
aI101
aI104
aI111
aI113
aI124
aI125
aI126
aI128
aI133
aI148
aI170
aI174
aI175
aI177
aI180
aI202
aI204
aI226
aI229
aI231
aI243
aI246
aI248
aI260
aI263
aI267
aI268
aI271
aI279
aI298
aI299
aI305
aI307
aI315
aI323
aI332
aI336
aI343
aI347
aI354
aI355
aI359
aI370
aI381
aI382
aI383
aI391
aI393
aa(lp59
I0
aI3
aI13
aI24
aI25
aI32
aI34
aI40
aI43
aI55
aI56
aI67
aI89
aI95
aI101
aI109
aI113
aI117
aI133
aI137
aI139
aI147
aI151
aI161
aI163
aI165
aI170
aI171
aI178
aI181
aI183
aI184
aI185
aI192
aI211
aI238
aI258
aI264
aI267
aI272
aI274
aI280
aI300
aI320
aI325
aI332
aI342
aI352
aI366
aI380
aI381
aI395
aa(lp60
I12
aI13
aI17
aI27
aI39
aI48
aI64
aI71
aI75
aI81
aI83
aI94
aI115
aI117
aI118
aI129
aI133
aI136
aI140
aI143
aI145
aI149
aI150
aI159
aI164
aI166
aI191
aI204
aI223
aI226
aI229
aI232
aI233
aI236
aI240
aI241
aI254
aI255
aI265
aI267
aI275
aI279
aI295
aI333
aI341
aI345
aI346
aI351
aI355
aI369
aI378
aI382
aI383
aI395
aI398
aa(lp61
I5
aI9
aI20
aI33
aI36
aI43
aI46
aI47
aI49
aI57
aI62
aI66
aI69
aI78
aI87
aI88
aI89
aI99
aI126
aI127
aI130
aI138
aI141
aI144
aI148
aI185
aI195
aI197
aI218
aI221
aI224
aI226
aI232
aI238
aI241
aI250
aI254
aI265
aI266
aI272
aI284
aI291
aI299
aI301
aI302
aI310
aI316
aI317
aI320
aI324
aI328
aI329
aI331
aI337
aI339
aI350
aI361
aI366
aI369
aI371
aI375
aI379
aI380
aI381
aI384
aI387
aI393
aI395
aa(lp62
I2
aI5
aI20
aI21
aI25
aI29
aI40
aI42
aI52
aI69
aI79
aI83
aI85
aI86
aI94
aI95
aI100
aI101
aI102
aI104
aI117
aI120
aI127
aI128
aI129
aI132
aI135
aI145
aI148
aI155
aI164
aI166
aI181
aI200
aI215
aI222
aI224
aI226
aI233
aI241
aI242
aI250
aI264
aI266
aI268
aI270
aI280
aI291
aI296
aI298
aI302
aI307
aI310
aI321
aI331
aI345
aI346
aI353
aI358
aI371
aI373
aI375
aI380
aI388
aI390
aI392
aI394
aa(lp63
I0
aI7
aI10
aI11
aI20
aI22
aI23
aI24
aI35
aI39
aI41
aI51
aI57
aI60
aI66
aI75
aI77
aI78
aI92
aI97
aI100
aI105
aI117
aI126
aI131
aI140
aI150
aI151
aI157
aI159
aI168
aI173
aI175
aI176
aI181
aI182
aI187
aI207
aI210
aI213
aI216
aI235
aI281
aI284
aI293
aI301
aI313
aI317
aI322
aI325
aI354
aI359
aI362
aI368
aI373
aI375
aI383
aI392
aI395
aa(lp64
I21
aI26
aI29
aI33
aI52
aI58
aI60
aI63
aI89
aI92
aI101
aI123
aI134
aI135
aI157
aI170
aI171
aI183
aI190
aI195
aI198
aI208
aI220
aI233
aI236
aI245
aI253
aI256
aI258
aI264
aI282
aI286
aI287
aI290
aI292
aI296
aI298
aI300
aI302
aI313
aI325
aI334
aI352
aI354
aI358
aI375
aI376
aI378
aI386
aI393
aI394
aI396
aa(lp65
I1
aI5
aI7
aI8
aI10
aI11
aI13
aI17
aI25
aI29
aI33
aI34
aI36
aI39
aI44
aI50
aI54
aI60
aI61
aI72
aI78
aI88
aI90
aI113
aI114
aI117
aI124
aI125
aI150
aI156
aI169
aI176
aI194
aI197
aI201
aI202
aI206
aI213
aI216
aI218
aI221
aI231
aI236
aI242
aI249
aI251
aI253
aI262
aI270
aI278
aI284
aI288
aI290
aI303
aI307
aI310
aI311
aI314
aI320
aI321
aI324
aI327
aI345
aI357
aI361
aI363
aI370
aI373
aI376
aa(lp66
I19
aI20
aI21
aI29
aI30
aI33
aI34
aI35
aI54
aI60
aI64
aI74
aI75
aI89
aI98
aI111
aI112
aI120
aI127
aI144
aI147
aI151
aI156
aI162
aI173
aI180
aI187
aI189
aI196
aI209
aI216
aI223
aI230
aI252
aI255
aI262
aI269
aI282
aI283
aI285
aI303
aI313
aI320
aI329
aI331
aI334
aI342
aI346
aI353
aI371
aI386
aI392
aI394
aI397
aI398
aa(lp67
I4
aI6
aI12
aI17
aI34
aI37
aI40
aI44
aI46
aI52
aI63
aI65
aI66
aI70
aI87
aI90
aI91
aI103
aI105
aI108
aI112
aI114
aI115
aI119
aI123
aI124
aI139
aI153
aI159
aI163
aI166
aI167
aI172
aI179
aI193
aI194
aI201
aI205
aI206
aI207
aI208
aI214
aI223
aI231
aI243
aI246
aI258
aI280
aI285
aI287
aI294
aI296
aI310
aI316
aI326
aI328
aI329
aI331
aI335
aI339
aI340
aI356
aI360
aI368
aI376
aI381
aI384
aI385
aI386
aI387
aI388
aI397
aI399
aa(lp68
I11
aI13
aI17
aI21
aI22
aI26
aI39
aI62
aI67
aI71
aI79
aI107
aI110
aI119
aI134
aI138
aI141
aI146
aI148
aI150
aI159
aI160
aI166
aI171
aI192
aI196
aI197
aI201
aI209
aI211
aI215
aI227
aI236
aI237
aI247
aI267
aI269
aI271
aI280
aI296
aI304
aI310
aI311
aI312
aI316
aI320
aI328
aI335
aI337
aI339
aI340
aI359
aI370
aI376
aI380
aI382
aI385
aI388
aI393
aI394
aa(lp69
I1
aI7
aI26
aI42
aI54
aI60
aI86
aI89
aI90
aI93
aI94
aI98
aI112
aI115
aI116
aI120
aI121
aI127
aI135
aI144
aI148
aI153
aI158
aI159
aI161
aI171
aI175
aI176
aI178
aI182
aI183
aI192
aI196
aI197
aI199
aI205
aI215
aI219
aI227
aI232
aI239
aI243
aI244
aI272
aI284
aI287
aI300
aI303
aI307
aI309
aI315
aI322
aI342
aI352
aI358
aI372
aI373
aI375
aI378
aI390
aI398
aI399
aa(lp70
I2
aI11
aI17
aI25
aI40
aI50
aI68
aI69
aI73
aI78
aI84
aI89
aI102
aI110
aI114
aI116
aI131
aI140
aI144
aI147
aI152
aI168
aI176
aI179
aI185
aI189
aI194
aI196
aI213
aI216
aI223
aI231
aI235
aI237
aI242
aI245
aI250
aI255
aI264
aI270
aI274
aI276
aI278
aI283
aI293
aI297
aI302
aI304
aI306
aI315
aI319
aI322
aI323
aI327
aI333
aI342
aI359
aI362
aI369
aI373
aI380
aI381
aI396
aa(lp71
I11
aI13
aI14
aI16
aI25
aI28
aI31
aI35
aI39
aI51
aI56
aI63
aI64
aI71
aI73
aI77
aI93
aI109
aI110
aI112
aI114
aI122
aI143
aI146
aI148
aI155
aI170
aI176
aI177
aI182
aI184
aI187
aI210
aI211
aI213
aI223
aI224
aI225
aI232
aI248
aI254
aI258
aI261
aI264
aI265
aI266
aI274
aI282
aI283
aI285
aI288
aI308
aI312
aI313
aI317
aI348
aI354
aI356
aI360
aI376
aI379
aI396
aa(lp72
I4
aI8
aI16
aI22
aI37
aI40
aI49
aI78
aI81
aI82
aI89
aI90
aI92
aI133
aI138
aI148
aI153
aI159
aI165
aI166
aI167
aI170
aI185
aI186
aI189
aI194
aI200
aI212
aI213
aI223
aI224
aI229
aI246
aI261
aI269
aI272
aI285
aI289
aI292
aI302
aI304
aI311
aI315
aI328
aI334
aI336
aI340
aI342
aI343
aI350
aI351
aI352
aI370
aI381
aI394
aa(lp73
I7
aI12
aI29
aI30
aI45
aI52
aI67
aI72
aI81
aI83
aI96
aI99
aI101
aI110
aI118
aI120
aI131
aI132
aI138
aI143
aI147
aI158
aI165
aI169
aI174
aI178
aI179
aI187
aI206
aI209
aI211
aI231
aI235
aI239
aI243
aI272
aI273
aI280
aI289
aI292
aI298
aI300
aI312
aI324
aI328
aI343
aI348
aI360
aI363
aI369
aI381
aI392
aa(lp74
I25
aI36
aI41
aI43
aI52
aI64
aI65
aI71
aI83
aI87
aI92
aI98
aI104
aI142
aI145
aI158
aI159
aI166
aI168
aI173
aI180
aI183
aI189
aI191
aI196
aI199
aI219
aI221
aI240
aI246
aI250
aI255
aI280
aI286
aI296
aI297
aI306
aI315
aI317
aI325
aI330
aI332
aI341
aI343
aI344
aI348
aI350
aI363
aI364
aI367
aI368
aI372
aI373
aI377
aI378
aI380
aI388
aI392
aI394
aI397
aa(lp75
I21
aI25
aI29
aI39
aI42
aI43
aI44
aI49
aI60
aI93
aI96
aI101
aI104
aI112
aI126
aI138
aI154
aI155
aI166
aI173
aI174
aI180
aI182
aI185
aI198
aI203
aI205
aI213
aI214
aI223
aI225
aI231
aI237
aI244
aI263
aI268
aI269
aI279
aI290
aI297
aI298
aI309
aI319
aI322
aI326
aI330
aI331
aI332
aI336
aI346
aI347
aI354
aI358
aI359
aI361
aI371
aI377
aI378
aI379
aI395
aa(lp76
I1
aI11
aI16
aI18
aI21
aI26
aI28
aI30
aI36
aI49
aI50
aI61
aI67
aI75
aI96
aI98
aI119
aI123
aI126
aI136
aI140
aI146
aI147
aI156
aI158
aI169
aI172
aI173
aI174
aI178
aI190
aI195
aI202
aI203
aI216
aI227
aI230
aI237
aI256
aI261
aI266
aI268
aI279
aI280
aI283
aI284
aI285
aI291
aI292
aI293
aI299
aI308
aI317
aI319
aI322
aI336
aI337
aI338
aI341
aI354
aI369
aI377
aI382
aI392
aa(lp77
I0
aI15
aI18
aI19
aI33
aI34
aI56
aI100
aI117
aI128
aI139
aI145
aI180
aI183
aI185
aI199
aI202
aI228
aI233
aI235
aI240
aI242
aI267
aI286
aI298
aI301
aI305
aI316
aI319
aI321
aI325
aI326
aI327
aI329
aI330
aI332
aI336
aI340
aI345
aI361
aI370
aI373
aI381
aI388
aI396
aI397
aI398
aa(lp78
I4
aI13
aI28
aI30
aI34
aI36
aI40
aI43
aI51
aI55
aI61
aI65
aI66
aI109
aI110
aI113
aI117
aI118
aI120
aI129
aI135
aI136
aI141
aI146
aI155
aI160
aI174
aI176
aI177
aI179
aI193
aI201
aI209
aI213
aI224
aI227
aI234
aI239
aI248
aI257
aI268
aI269
aI281
aI297
aI299
aI302
aI316
aI318
aI326
aI332
aI339
aI351
aI356
aI357
aI371
aI378
aI385
aI391
aI397
aa(lp79
I15
aI16
aI25
aI41
aI47
aI52
aI57
aI58
aI64
aI69
aI70
aI77
aI79
aI97
aI99
aI101
aI105
aI113
aI114
aI115
aI135
aI142
aI144
aI149
aI153
aI163
aI195
aI200
aI201
aI206
aI207
aI209
aI213
aI217
aI220
aI221
aI224
aI241
aI250
aI251
aI263
aI270
aI276
aI290
aI300
aI309
aI315
aI320
aI322
aI326
aI333
aI335
aI344
aI350
aI351
aI355
aI357
aI359
aI370
aI371
aI375
aI378
aI386
aI389
aa(lp80
I0
aI8
aI9
aI11
aI15
aI18
aI33
aI34
aI41
aI45
aI53
aI73
aI74
aI96
aI101
aI103
aI106
aI117
aI131
aI132
aI133
aI148
aI152
aI160
aI162
aI164
aI166
aI180
aI182
aI183
aI194
aI210
aI217
aI220
aI234
aI237
aI256
aI257
aI269
aI275
aI278
aI290
aI306
aI312
aI337
aI340
aI360
aI370
aI379
aI393
aI395
aa(lp81
I5
aI14
aI15
aI22
aI37
aI39
aI44
aI56
aI76
aI103
aI106
aI121
aI125
aI126
aI128
aI129
aI131
aI134
aI137
aI141
aI152
aI159
aI170
aI172
aI176
aI182
aI189
aI213
aI217
aI228
aI243
aI251
aI261
aI262
aI278
aI289
aI294
aI318
aI319
aI323
aI324
aI327
aI330
aI335
aI339
aI340
aI341
aI357
aI360
aI365
aI371
aI398
aa(lp82
I3
aI4
aI10
aI15
aI26
aI41
aI42
aI52
aI64
aI70
aI77
aI79
aI82
aI83
aI88
aI89
aI92
aI93
aI96
aI109
aI114
aI117
aI142
aI159
aI179
aI183
aI200
aI203
aI208
aI228
aI233
aI239
aI242
aI243
aI247
aI262
aI277
aI282
aI284
aI292
aI293
aI297
aI299
aI310
aI316
aI318
aI319
aI322
aI326
aI333
aI351
aI361
aI369
aI374
aI381
aI385
aI392
aI398
aa(lp83
I5
aI9
aI20
aI21
aI32
aI35
aI36
aI42
aI45
aI51
aI73
aI84
aI106
aI112
aI115
aI119
aI124
aI133
aI134
aI143
aI146
aI185
aI187
aI188
aI196
aI209
aI211
aI218
aI225
aI228
aI231
aI236
aI266
aI268
aI276
aI280
aI282
aI283
aI285
aI304
aI311
aI319
aI327
aI352
aI362
aI365
aI368
aI373
aI378
aI379
aI381
aI394
aI395
aa(lp84
I2
aI5
aI6
aI17
aI24
aI29
aI30
aI32
aI33
aI38
aI42
aI43
aI44
aI48
aI61
aI75
aI76
aI97
aI101
aI105
aI106
aI116
aI120
aI128
aI139
aI143
aI165
aI168
aI196
aI198
aI200
aI201
aI205
aI207
aI208
aI210
aI219
aI223
aI229
aI236
aI241
aI262
aI263
aI285
aI286
aI297
aI299
aI300
aI320
aI327
aI331
aI334
aI335
aI340
aI341
aI342
aI348
aI359
aI368
aI369
aI375
aI381
aI386
aI387
aI397
aa(lp85
I13
aI16
aI20
aI33
aI41
aI47
aI48
aI49
aI56
aI58
aI69
aI79
aI97
aI101
aI104
aI115
aI120
aI139
aI141
aI142
aI154
aI161
aI169
aI174
aI183
aI184
aI185
aI189
aI193
aI202
aI203
aI212
aI214
aI217
aI218
aI221
aI222
aI226
aI231
aI238
aI244
aI249
aI252
aI258
aI271
aI273
aI285
aI292
aI298
aI310
aI313
aI321
aI326
aI344
aI357
aI359
aI364
aI380
aI384
aI388
aI390
aI394
aa(lp86
I1
aI18
aI23
aI26
aI39
aI50
aI57
aI60
aI78
aI82
aI87
aI91
aI118
aI126
aI127
aI144
aI149
aI155
aI158
aI161
aI164
aI179
aI186
aI204
aI216
aI227
aI229
aI230
aI257
aI278
aI281
aI285
aI295
aI302
aI303
aI315
aI347
aI353
aI354
aI361
aI372
aI377
aI380
aI386
aI389
aI397
aI398
aa(lp87
I0
aI3
aI5
aI9
aI10
aI22
aI38
aI40
aI44
aI45
aI59
aI80
aI81
aI86
aI92
aI118
aI122
aI128
aI142
aI143
aI147
aI155
aI168
aI173
aI174
aI175
aI176
aI186
aI193
aI201
aI204
aI207
aI208
aI241
aI249
aI251
aI252
aI258
aI260
aI279
aI293
aI300
aI301
aI302
aI305
aI306
aI307
aI316
aI323
aI330
aI335
aI342
aI353
aI357
aI365
aI366
aI370
aI376
aI386
aI390
aI392
aI394
aa(lp88
I0
aI7
aI10
aI23
aI27
aI35
aI43
aI44
aI45
aI51
aI63
aI66
aI71
aI72
aI85
aI98
aI99
aI104
aI105
aI107
aI128
aI136
aI139
aI140
aI142
aI150
aI156
aI164
aI166
aI175
aI179
aI192
aI201
aI202
aI203
aI204
aI208
aI234
aI245
aI249
aI260
aI262
aI268
aI269
aI270
aI273
aI275
aI278
aI284
aI285
aI301
aI326
aI327
aI333
aI338
aI339
aI340
aI344
aI352
aI360
aI362
aI387
aI391
aI394
aI397
aI398
aa(lp89
I4
aI19
aI21
aI45
aI49
aI50
aI53
aI55
aI56
aI67
aI72
aI75
aI95
aI96
aI98
aI102
aI104
aI108
aI113
aI116
aI118
aI157
aI159
aI161
aI162
aI166
aI174
aI186
aI187
aI188
aI189
aI200
aI203
aI206
aI235
aI236
aI237
aI262
aI264
aI265
aI266
aI275
aI279
aI281
aI287
aI290
aI292
aI293
aI296
aI312
aI317
aI319
aI321
aI327
aI329
aI337
aI340
aI345
aI353
aI358
aI359
aI369
aI374
aI375
aI380
aI387
aI389
aI399
aa(lp90
I1
aI9
aI10
aI13
aI16
aI17
aI26
aI27
aI47
aI49
aI51
aI54
aI72
aI76
aI89
aI91
aI102
aI118
aI121
aI130
aI142
aI150
aI153
aI165
aI166
aI167
aI175
aI179
aI199
aI202
aI213
aI218
aI219
aI220
aI226
aI227
aI233
aI235
aI241
aI242
aI244
aI247
aI248
aI261
aI268
aI276
aI277
aI283
aI286
aI293
aI297
aI300
aI309
aI316
aI350
aI359
aI369
aI380
aI399
aa(lp91
I3
aI4
aI22
aI28
aI32
aI35
aI39
aI40
aI50
aI55
aI60
aI80
aI84
aI94
aI96
aI97
aI102
aI109
aI112
aI116
aI119
aI128
aI132
aI149
aI163
aI171
aI172
aI179
aI184
aI187
aI189
aI217
aI218
aI222
aI225
aI246
aI249
aI258
aI263
aI276
aI311
aI316
aI327
aI334
aI338
aI339
aI340
aI342
aI352
aI355
aI360
aI362
aI376
aI382
aa(lp92
I3
aI4
aI7
aI26
aI32
aI64
aI70
aI75
aI78
aI89
aI94
aI107
aI111
aI116
aI121
aI131
aI136
aI142
aI149
aI150
aI187
aI189
aI198
aI204
aI205
aI206
aI207
aI209
aI212
aI220
aI223
aI226
aI228
aI229
aI231
aI240
aI245
aI262
aI267
aI268
aI272
aI273
aI276
aI288
aI297
aI303
aI305
aI313
aI317
aI319
aI333
aI334
aI335
aI341
aI345
aI351
aI377
aI380
aI384
aI389
aa(lp93
I30
aI34
aI47
aI54
aI60
aI69
aI72
aI84
aI95
aI100
aI109
aI113
aI122
aI125
aI126
aI132
aI140
aI143
aI153
aI156
aI158
aI163
aI171
aI174
aI179
aI181
aI182
aI190
aI194
aI197
aI228
aI233
aI251
aI260
aI271
aI272
aI274
aI276
aI282
aI289
aI296
aI298
aI304
aI309
aI314
aI326
aI329
aI332
aI338
aI341
aI349
aI354
aI356
aI360
aI366
aI369
aI378
aI396
aI397
aa(lp94
I3
aI4
aI16
aI19
aI21
aI22
aI25
aI30
aI56
aI59
aI71
aI74
aI81
aI82
aI85
aI88
aI92
aI127
aI129
aI139
aI143
aI156
aI163
aI165
aI175
aI176
aI183
aI187
aI197
aI201
aI207
aI208
aI213
aI220
aI228
aI235
aI239
aI242
aI244
aI245
aI251
aI255
aI256
aI261
aI269
aI272
aI273
aI286
aI288
aI289
aI292
aI297
aI298
aI304
aI330
aI340
aI342
aI343
aI344
aI346
aI349
aI358
aI360
aI364
aI369
aI376
aI384
aa(lp95
I7
aI9
aI21
aI33
aI35
aI38
aI39
aI42
aI45
aI48
aI53
aI55
aI61
aI67
aI68
aI75
aI76
aI80
aI90
aI95
aI134
aI150
aI152
aI157
aI161
aI179
aI182
aI184
aI185
aI195
aI200
aI203
aI205
aI226
aI237
aI238
aI239
aI248
aI254
aI259
aI260
aI271
aI273
aI280
aI284
aI287
aI297
aI309
aI313
aI316
aI317
aI325
aI344
aI359
aI370
aI371
aI387
aI391
aI392
aa(lp96
I4
aI9
aI15
aI21
aI27
aI37
aI42
aI52
aI61
aI63
aI64
aI66
aI68
aI97
aI111
aI112
aI121
aI147
aI149
aI155
aI157
aI169
aI178
aI180
aI187
aI190
aI209
aI211
aI228
aI234
aI241
aI243
aI244
aI249
aI276
aI278
aI290
aI292
aI293
aI304
aI320
aI323
aI324
aI332
aI354
aI370
aI388
aI390
aI398
aa(lp97
I0
aI3
aI4
aI9
aI14
aI24
aI58
aI65
aI68
aI92
aI97
aI99
aI107
aI110
aI121
aI124
aI126
aI132
aI137
aI140
aI155
aI156
aI159
aI169
aI171
aI177
aI200
aI205
aI211
aI225
aI227
aI230
aI233
aI253
aI268
aI269
aI275
aI279
aI280
aI287
aI288
aI294
aI296
aI308
aI310
aI319
aI320
aI333
aI341
aI343
aI351
aI352
aI372
aI381
aI388
aa(lp98
I11
aI12
aI16
aI18
aI20
aI25
aI34
aI44
aI49
aI62
aI68
aI95
aI113
aI118
aI120
aI123
aI128
aI135
aI138
aI146
aI151
aI170
aI173
aI177
aI178
aI182
aI185
aI190
aI197
aI207
aI209
aI213
aI233
aI245
aI249
aI264
aI270
aI272
aI279
aI285
aI293
aI298
aI308
aI320
aI324
aI331
aI334
aI363
aI366
aI369
aI372
aI377
aI382
aI392
aI398
aa(lp99
I0
aI1
aI18
aI28
aI31
aI33
aI34
aI39
aI51
aI53
aI66
aI77
aI78
aI79
aI87
aI88
aI117
aI127
aI135
aI139
aI142
aI164
aI170
aI172
aI187
aI200
aI204
aI209
aI227
aI228
aI238
aI239
aI260
aI261
aI269
aI273
aI281
aI292
aI295
aI300
aI316
aI318
aI324
aI326
aI331
aI337
aI339
aI345
aI357
aI362
aI367
aI375
aI380
aI387
aI397
aa(lp100
I16
aI26
aI29
aI40
aI44
aI47
aI51
aI52
aI61
aI77
aI81
aI86
aI87
aI99
aI104
aI110
aI114
aI117
aI118
aI119
aI120
aI135
aI136
aI146
aI159
aI164
aI165
aI182
aI183
aI185
aI188
aI202
aI205
aI217
aI219
aI220
aI225
aI233
aI236
aI239
aI242
aI249
aI258
aI267
aI283
aI300
aI303
aI316
aI320
aI322
aI330
aI333
aI343
aI347
aI349
aI354
aI359
aI360
aI372
aI379
aI390
aI392
aI394
aatp101
bsS'format'
p102
S'Spa'
p103
sS'dtype'
p104
g14
(S'f8'
p105
I0
I1
tp106
Rp107
(I3
S'<'
p108
NNNI-1
I-1
I0
tp109
bsS'_shape'
p110
(I80
I400
tp111
sS'maxprint'
p112
I50
sS'data'
p113
g7
(g8
(I0
tp114
g10
tp115
Rp116
(I1
(I80
tp117
g17
I00
(lp118
(lp119
F-0.001
aF-0.001
aF-0.001
aF-0.001
aF-0.001
aF-0.001
aF-0.001
aF-0.001
aF-0.001
aF-0.001
aF-0.001
aF-0.001
aF-0.001
aF-0.001
aF-0.001
aF-0.001
aF-0.001
aF-0.001
aF-0.001
aF-0.001
aF-0.001
aF-0.001
aF-0.001
aF-0.001
aF-0.001
aF-0.001
aF-0.001
aF-0.001
aF-0.001
aF-0.001
aF-0.001
aF-0.001
aF-0.001
aF-0.001
aF-0.001
aF-0.001
aF-0.001
aF-0.001
aF-0.001
aF-0.001
aF-0.001
aF-0.001
aF-0.001
aF-0.001
aF-0.001
aF-0.001
aF-0.001
aF-0.001
aF-0.001
aF-0.001
aF-0.001
aF-0.001
aF-0.001
aF-0.001
aF-0.001
aF-0.001
aF-0.001
aF-0.001
aF-0.001
aF-0.001
aF-0.001
aF-0.001
aF-0.001
aF-0.001
aF-0.001
aF-0.001
aF-0.001
aF-0.001
aF-0.001
aF-0.001
aF-0.001
aF-0.001
aF-0.001
aF-0.001
aF-0.001
aF-0.001
aa(lp120
F-0.001
aF-0.001
aF-0.001
aF-0.001
aF-0.001
aF-0.001
aF-0.001
aF-0.001
aF-0.001
aF-0.001
aF-0.001
aF-0.001
aF-0.001
aF-0.001
aF-0.001
aF-0.001
aF-0.001
aF-0.001
aF-0.001
aF-0.001
aF-0.001
aF-0.001
aF-0.001
aF-0.001
aF-0.001
aF-0.001
aF-0.001
aF-0.001
aF-0.001
aF-0.001
aF-0.001
aF-0.001
aF-0.001
aF-0.001
aF-0.001
aF-0.001
aF-0.001
aF-0.001
aF-0.001
aF-0.001
aF-0.001
aF-0.001
aF-0.001
aF-0.001
aF-0.001
aF-0.001
aF-0.001
aF-0.001
aF-0.001
aF-0.001
aF-0.001
aF-0.001
aF-0.001
aa(lp121
F-0.001
aF-0.001
aF-0.001
aF-0.001
aF-0.001
aF-0.001
aF-0.001
aF-0.001
aF-0.001
aF-0.001
aF-0.001
aF-0.001
aF-0.001
aF-0.001
aF-0.001
aF-0.001
aF-0.001
aF-0.001
aF-0.001
aF-0.001
aF-0.001
aF-0.001
aF-0.001
aF-0.001
aF-0.001
aF-0.001
aF-0.001
aF-0.001
aF-0.001
aF-0.001
aF-0.001
aF-0.001
aF-0.001
aF-0.001
aF-0.001
aF-0.001
aF-0.001
aF-0.001
aF-0.001
aF-0.001
aF-0.001
aF-0.001
aF-0.001
aF-0.001
aF-0.001
aF-0.001
aF-0.001
aF-0.001
aF-0.001
aF-0.001
aF-0.001
aF-0.001
aF-0.001
aF-0.001
aF-0.001
aF-0.001
aF-0.001
aF-0.001
aF-0.001
aF-0.001
aF-0.001
aF-0.001
aF-0.001
aa(lp122
F-0.001
aF-0.001
aF-0.001
aF-0.001
aF-0.001
aF-0.001
aF-0.001
aF-0.001
aF-0.001
aF-0.001
aF-0.001
aF-0.001
aF-0.001
aF-0.001
aF-0.001
aF-0.001
aF-0.001
aF-0.001
aF-0.001
aF-0.001
aF-0.001
aF-0.001
aF-0.001
aF-0.001
aF-0.001
aF-0.001
aF-0.001
aF-0.001
aF-0.001
aF-0.001
aF-0.001
aF-0.001
aF-0.001
aF-0.001
aF-0.001
aF-0.001
aF-0.001
aF-0.001
aF-0.001
aF-0.001
aF-0.001
aF-0.001
aF-0.001
aF-0.001
aF-0.001
aF-0.001
aF-0.001
aF-0.001
aF-0.001
aF-0.001
aF-0.001
aF-0.001
aF-0.001
aF-0.001
aa(lp123
F-0.001
aF-0.001
aF-0.001
aF-0.001
aF-0.001
aF-0.001
aF-0.001
aF-0.001
aF-0.001
aF-0.001
aF-0.001
aF-0.001
aF-0.001
aF-0.001
aF-0.001
aF-0.001
aF-0.001
aF-0.001
aF-0.001
aF-0.001
aF-0.001
aF-0.001
aF-0.001
aF-0.001
aF-0.001
aF-0.001
aF-0.001
aF-0.001
aF-0.001
aF-0.001
aF-0.001
aF-0.001
aF-0.001
aF-0.001
aF-0.001
aF-0.001
aF-0.001
aF-0.001
aF-0.001
aF-0.001
aF-0.001
aF-0.001
aF-0.001
aF-0.001
aF-0.001
aF-0.001
aF-0.001
aF-0.001
aF-0.001
aF-0.001
aF-0.001
aF-0.001
aF-0.001
aF-0.001
aF-0.001
aF-0.001
aF-0.001
aF-0.001
aF-0.001
aF-0.001
aF-0.001
aF-0.001
aa(lp124
F-0.001
aF-0.001
aF-0.001
aF-0.001
aF-0.001
aF-0.001
aF-0.001
aF-0.001
aF-0.001
aF-0.001
aF-0.001
aF-0.001
aF-0.001
aF-0.001
aF-0.001
aF-0.001
aF-0.001
aF-0.001
aF-0.001
aF-0.001
aF-0.001
aF-0.001
aF-0.001
aF-0.001
aF-0.001
aF-0.001
aF-0.001
aF-0.001
aF-0.001
aF-0.001
aF-0.001
aF-0.001
aF-0.001
aF-0.001
aF-0.001
aF-0.001
aF-0.001
aF-0.001
aF-0.001
aF-0.001
aF-0.001
aF-0.001
aF-0.001
aF-0.001
aF-0.001
aF-0.001
aF-0.001
aF-0.001
aF-0.001
aF-0.001
aF-0.001
aF-0.001
aF-0.001
aF-0.001
aF-0.001
aF-0.001
aF-0.001
aF-0.001
aF-0.001
aF-0.001
aF-0.001
aF-0.001
aF-0.001
aF-0.001
aF-0.001
aF-0.001
aF-0.001
aF-0.001
aF-0.001
aF-0.001
aF-0.001
aF-0.001
aF-0.001
aF-0.001
aa(lp125
F-0.001
aF-0.001
aF-0.001
aF-0.001
aF-0.001
aF-0.001
aF-0.001
aF-0.001
aF-0.001
aF-0.001
aF-0.001
aF-0.001
aF-0.001
aF-0.001
aF-0.001
aF-0.001
aF-0.001
aF-0.001
aF-0.001
aF-0.001
aF-0.001
aF-0.001
aF-0.001
aF-0.001
aF-0.001
aF-0.001
aF-0.001
aF-0.001
aF-0.001
aF-0.001
aF-0.001
aF-0.001
aF-0.001
aF-0.001
aF-0.001
aF-0.001
aF-0.001
aF-0.001
aF-0.001
aF-0.001
aF-0.001
aF-0.001
aF-0.001
aF-0.001
aF-0.001
aF-0.001
aF-0.001
aF-0.001
aF-0.001
aF-0.001
aF-0.001
aF-0.001
aF-0.001
aF-0.001
aF-0.001
aF-0.001
aF-0.001
aF-0.001
aF-0.001
aF-0.001
aF-0.001
aF-0.001
aF-0.001
aF-0.001
aF-0.001
aF-0.001
aF-0.001
aF-0.001
aF-0.001
aF-0.001
aF-0.001
aF-0.001
aF-0.001
aF-0.001
aF-0.001
aF-0.001
aa(lp126
F-0.001
aF-0.001
aF-0.001
aF-0.001
aF-0.001
aF-0.001
aF-0.001
aF-0.001
aF-0.001
aF-0.001
aF-0.001
aF-0.001
aF-0.001
aF-0.001
aF-0.001
aF-0.001
aF-0.001
aF-0.001
aF-0.001
aF-0.001
aF-0.001
aF-0.001
aF-0.001
aF-0.001
aF-0.001
aF-0.001
aF-0.001
aF-0.001
aF-0.001
aF-0.001
aF-0.001
aF-0.001
aF-0.001
aF-0.001
aF-0.001
aF-0.001
aF-0.001
aF-0.001
aF-0.001
aF-0.001
aF-0.001
aF-0.001
aF-0.001
aF-0.001
aF-0.001
aF-0.001
aF-0.001
aF-0.001
aF-0.001
aF-0.001
aF-0.001
aF-0.001
aF-0.001
aF-0.001
aF-0.001
aF-0.001
aF-0.001
aF-0.001
aF-0.001
aF-0.001
aF-0.001
aa(lp127
F-0.001
aF-0.001
aF-0.001
aF-0.001
aF-0.001
aF-0.001
aF-0.001
aF-0.001
aF-0.001
aF-0.001
aF-0.001
aF-0.001
aF-0.001
aF-0.001
aF-0.001
aF-0.001
aF-0.001
aF-0.001
aF-0.001
aF-0.001
aF-0.001
aF-0.001
aF-0.001
aF-0.001
aF-0.001
aF-0.001
aF-0.001
aF-0.001
aF-0.001
aF-0.001
aF-0.001
aF-0.001
aF-0.001
aF-0.001
aF-0.001
aF-0.001
aF-0.001
aF-0.001
aF-0.001
aF-0.001
aF-0.001
aF-0.001
aF-0.001
aF-0.001
aF-0.001
aF-0.001
aF-0.001
aF-0.001
aF-0.001
aF-0.001
aF-0.001
aF-0.001
aF-0.001
aa(lp128
F-0.001
aF-0.001
aF-0.001
aF-0.001
aF-0.001
aF-0.001
aF-0.001
aF-0.001
aF-0.001
aF-0.001
aF-0.001
aF-0.001
aF-0.001
aF-0.001
aF-0.001
aF-0.001
aF-0.001
aF-0.001
aF-0.001
aF-0.001
aF-0.001
aF-0.001
aF-0.001
aF-0.001
aF-0.001
aF-0.001
aF-0.001
aF-0.001
aF-0.001
aF-0.001
aF-0.001
aF-0.001
aF-0.001
aF-0.001
aF-0.001
aF-0.001
aF-0.001
aF-0.001
aF-0.001
aF-0.001
aF-0.001
aF-0.001
aF-0.001
aF-0.001
aF-0.001
aF-0.001
aF-0.001
aF-0.001
aF-0.001
aF-0.001
aF-0.001
aF-0.001
aF-0.001
aF-0.001
aF-0.001
aF-0.001
aF-0.001
aF-0.001
aF-0.001
aF-0.001
aF-0.001
aF-0.001
aa(lp129
F-0.001
aF-0.001
aF-0.001
aF-0.001
aF-0.001
aF-0.001
aF-0.001
aF-0.001
aF-0.001
aF-0.001
aF-0.001
aF-0.001
aF-0.001
aF-0.001
aF-0.001
aF-0.001
aF-0.001
aF-0.001
aF-0.001
aF-0.001
aF-0.001
aF-0.001
aF-0.001
aF-0.001
aF-0.001
aF-0.001
aF-0.001
aF-0.001
aF-0.001
aF-0.001
aF-0.001
aF-0.001
aF-0.001
aF-0.001
aF-0.001
aF-0.001
aF-0.001
aF-0.001
aF-0.001
aF-0.001
aF-0.001
aF-0.001
aF-0.001
aF-0.001
aF-0.001
aF-0.001
aF-0.001
aF-0.001
aF-0.001
aF-0.001
aF-0.001
aF-0.001
aF-0.001
aF-0.001
aF-0.001
aF-0.001
aF-0.001
aF-0.001
aF-0.001
aF-0.001
aF-0.001
aF-0.001
aF-0.001
aF-0.001
aF-0.001
aF-0.001
aa(lp130
F-0.001
aF-0.001
aF-0.001
aF-0.001
aF-0.001
aF-0.001
aF-0.001
aF-0.001
aF-0.001
aF-0.001
aF-0.001
aF-0.001
aF-0.001
aF-0.001
aF-0.001
aF-0.001
aF-0.001
aF-0.001
aF-0.001
aF-0.001
aF-0.001
aF-0.001
aF-0.001
aF-0.001
aF-0.001
aF-0.001
aF-0.001
aF-0.001
aF-0.001
aF-0.001
aF-0.001
aF-0.001
aF-0.001
aF-0.001
aF-0.001
aF-0.001
aF-0.001
aF-0.001
aF-0.001
aF-0.001
aF-0.001
aF-0.001
aF-0.001
aF-0.001
aF-0.001
aF-0.001
aF-0.001
aF-0.001
aF-0.001
aF-0.001
aF-0.001
aF-0.001
aF-0.001
aF-0.001
aF-0.001
aF-0.001
aF-0.001
aF-0.001
aa(lp131
F-0.001
aF-0.001
aF-0.001
aF-0.001
aF-0.001
aF-0.001
aF-0.001
aF-0.001
aF-0.001
aF-0.001
aF-0.001
aF-0.001
aF-0.001
aF-0.001
aF-0.001
aF-0.001
aF-0.001
aF-0.001
aF-0.001
aF-0.001
aF-0.001
aF-0.001
aF-0.001
aF-0.001
aF-0.001
aF-0.001
aF-0.001
aF-0.001
aF-0.001
aF-0.001
aF-0.001
aF-0.001
aF-0.001
aF-0.001
aF-0.001
aF-0.001
aF-0.001
aF-0.001
aF-0.001
aF-0.001
aF-0.001
aF-0.001
aF-0.001
aF-0.001
aF-0.001
aF-0.001
aF-0.001
aF-0.001
aF-0.001
aF-0.001
aF-0.001
aF-0.001
aF-0.001
aF-0.001
aF-0.001
aF-0.001
aF-0.001
aF-0.001
aF-0.001
aF-0.001
aF-0.001
aF-0.001
aF-0.001
aF-0.001
aF-0.001
aF-0.001
aF-0.001
aF-0.001
aF-0.001
aF-0.001
aF-0.001
aF-0.001
aF-0.001
aF-0.001
aa(lp132
F-0.001
aF-0.001
aF-0.001
aF-0.001
aF-0.001
aF-0.001
aF-0.001
aF-0.001
aF-0.001
aF-0.001
aF-0.001
aF-0.001
aF-0.001
aF-0.001
aF-0.001
aF-0.001
aF-0.001
aF-0.001
aF-0.001
aF-0.001
aF-0.001
aF-0.001
aF-0.001
aF-0.001
aF-0.001
aF-0.001
aF-0.001
aF-0.001
aF-0.001
aF-0.001
aF-0.001
aF-0.001
aF-0.001
aF-0.001
aF-0.001
aF-0.001
aF-0.001
aF-0.001
aF-0.001
aF-0.001
aF-0.001
aF-0.001
aF-0.001
aF-0.001
aF-0.001
aF-0.001
aF-0.001
aF-0.001
aF-0.001
aF-0.001
aF-0.001
aF-0.001
aF-0.001
aF-0.001
aF-0.001
aF-0.001
aF-0.001
aF-0.001
aF-0.001
aF-0.001
aF-0.001
aF-0.001
aF-0.001
aa(lp133
F-0.001
aF-0.001
aF-0.001
aF-0.001
aF-0.001
aF-0.001
aF-0.001
aF-0.001
aF-0.001
aF-0.001
aF-0.001
aF-0.001
aF-0.001
aF-0.001
aF-0.001
aF-0.001
aF-0.001
aF-0.001
aF-0.001
aF-0.001
aF-0.001
aF-0.001
aF-0.001
aF-0.001
aF-0.001
aF-0.001
aF-0.001
aF-0.001
aF-0.001
aF-0.001
aF-0.001
aF-0.001
aF-0.001
aF-0.001
aF-0.001
aF-0.001
aF-0.001
aF-0.001
aF-0.001
aF-0.001
aF-0.001
aF-0.001
aF-0.001
aF-0.001
aF-0.001
aF-0.001
aF-0.001
aF-0.001
aF-0.001
aF-0.001
aF-0.001
aF-0.001
aF-0.001
aF-0.001
aF-0.001
aa(lp134
F-0.001
aF-0.001
aF-0.001
aF-0.001
aF-0.001
aF-0.001
aF-0.001
aF-0.001
aF-0.001
aF-0.001
aF-0.001
aF-0.001
aF-0.001
aF-0.001
aF-0.001
aF-0.001
aF-0.001
aF-0.001
aF-0.001
aF-0.001
aF-0.001
aF-0.001
aF-0.001
aF-0.001
aF-0.001
aF-0.001
aF-0.001
aF-0.001
aF-0.001
aF-0.001
aF-0.001
aF-0.001
aF-0.001
aF-0.001
aF-0.001
aF-0.001
aF-0.001
aF-0.001
aF-0.001
aF-0.001
aF-0.001
aF-0.001
aF-0.001
aF-0.001
aF-0.001
aF-0.001
aF-0.001
aF-0.001
aF-0.001
aF-0.001
aF-0.001
aF-0.001
aF-0.001
aF-0.001
aF-0.001
aF-0.001
aF-0.001
aF-0.001
aF-0.001
aF-0.001
aF-0.001
aF-0.001
aF-0.001
aF-0.001
aF-0.001
aF-0.001
aF-0.001
aF-0.001
aF-0.001
aF-0.001
aa(lp135
F-0.001
aF-0.001
aF-0.001
aF-0.001
aF-0.001
aF-0.001
aF-0.001
aF-0.001
aF-0.001
aF-0.001
aF-0.001
aF-0.001
aF-0.001
aF-0.001
aF-0.001
aF-0.001
aF-0.001
aF-0.001
aF-0.001
aF-0.001
aF-0.001
aF-0.001
aF-0.001
aF-0.001
aF-0.001
aF-0.001
aF-0.001
aF-0.001
aF-0.001
aF-0.001
aF-0.001
aF-0.001
aF-0.001
aF-0.001
aF-0.001
aF-0.001
aF-0.001
aF-0.001
aF-0.001
aF-0.001
aF-0.001
aF-0.001
aF-0.001
aF-0.001
aF-0.001
aF-0.001
aF-0.001
aF-0.001
aF-0.001
aF-0.001
aF-0.001
aF-0.001
aF-0.001
aF-0.001
aF-0.001
aF-0.001
aF-0.001
aF-0.001
aF-0.001
aF-0.001
aF-0.001
aF-0.001
aF-0.001
aF-0.001
aF-0.001
aF-0.001
aF-0.001
aa(lp136
F-0.001
aF-0.001
aF-0.001
aF-0.001
aF-0.001
aF-0.001
aF-0.001
aF-0.001
aF-0.001
aF-0.001
aF-0.001
aF-0.001
aF-0.001
aF-0.001
aF-0.001
aF-0.001
aF-0.001
aF-0.001
aF-0.001
aF-0.001
aF-0.001
aF-0.001
aF-0.001
aF-0.001
aF-0.001
aF-0.001
aF-0.001
aF-0.001
aF-0.001
aF-0.001
aF-0.001
aF-0.001
aF-0.001
aF-0.001
aF-0.001
aF-0.001
aF-0.001
aF-0.001
aF-0.001
aF-0.001
aF-0.001
aF-0.001
aF-0.001
aF-0.001
aF-0.001
aF-0.001
aF-0.001
aF-0.001
aF-0.001
aF-0.001
aF-0.001
aF-0.001
aF-0.001
aF-0.001
aF-0.001
aa(lp137
F-0.001
aF-0.001
aF-0.001
aF-0.001
aF-0.001
aF-0.001
aF-0.001
aF-0.001
aF-0.001
aF-0.001
aF-0.001
aF-0.001
aF-0.001
aF-0.001
aF-0.001
aF-0.001
aF-0.001
aF-0.001
aF-0.001
aF-0.001
aF-0.001
aF-0.001
aF-0.001
aF-0.001
aF-0.001
aF-0.001
aF-0.001
aF-0.001
aF-0.001
aF-0.001
aF-0.001
aF-0.001
aF-0.001
aF-0.001
aF-0.001
aF-0.001
aF-0.001
aF-0.001
aF-0.001
aF-0.001
aF-0.001
aF-0.001
aF-0.001
aF-0.001
aF-0.001
aF-0.001
aF-0.001
aF-0.001
aF-0.001
aF-0.001
aF-0.001
aF-0.001
aF-0.001
aa(lp138
F-0.001
aF-0.001
aF-0.001
aF-0.001
aF-0.001
aF-0.001
aF-0.001
aF-0.001
aF-0.001
aF-0.001
aF-0.001
aF-0.001
aF-0.001
aF-0.001
aF-0.001
aF-0.001
aF-0.001
aF-0.001
aF-0.001
aF-0.001
aF-0.001
aF-0.001
aF-0.001
aF-0.001
aF-0.001
aF-0.001
aF-0.001
aF-0.001
aF-0.001
aF-0.001
aF-0.001
aF-0.001
aF-0.001
aF-0.001
aF-0.001
aF-0.001
aF-0.001
aF-0.001
aF-0.001
aF-0.001
aF-0.001
aF-0.001
aF-0.001
aF-0.001
aF-0.001
aF-0.001
aF-0.001
aF-0.001
aF-0.001
aF-0.001
aF-0.001
aF-0.001
aF-0.001
aF-0.001
aF-0.001
aF-0.001
aF-0.001
aF-0.001
aa(lp139
F-0.001
aF-0.001
aF-0.001
aF-0.001
aF-0.001
aF-0.001
aF-0.001
aF-0.001
aF-0.001
aF-0.001
aF-0.001
aF-0.001
aF-0.001
aF-0.001
aF-0.001
aF-0.001
aF-0.001
aF-0.001
aF-0.001
aF-0.001
aF-0.001
aF-0.001
aF-0.001
aF-0.001
aF-0.001
aF-0.001
aF-0.001
aF-0.001
aF-0.001
aF-0.001
aF-0.001
aF-0.001
aF-0.001
aF-0.001
aF-0.001
aF-0.001
aF-0.001
aF-0.001
aF-0.001
aF-0.001
aF-0.001
aF-0.001
aF-0.001
aF-0.001
aF-0.001
aF-0.001
aF-0.001
aF-0.001
aF-0.001
aF-0.001
aF-0.001
aF-0.001
aF-0.001
aF-0.001
aF-0.001
aF-0.001
aF-0.001
aF-0.001
aF-0.001
aF-0.001
aF-0.001
aF-0.001
aF-0.001
aF-0.001
aF-0.001
aF-0.001
aF-0.001
aF-0.001
aF-0.001
aF-0.001
aa(lp140
F-0.001
aF-0.001
aF-0.001
aF-0.001
aF-0.001
aF-0.001
aF-0.001
aF-0.001
aF-0.001
aF-0.001
aF-0.001
aF-0.001
aF-0.001
aF-0.001
aF-0.001
aF-0.001
aF-0.001
aF-0.001
aF-0.001
aF-0.001
aF-0.001
aF-0.001
aF-0.001
aF-0.001
aF-0.001
aF-0.001
aF-0.001
aF-0.001
aF-0.001
aF-0.001
aF-0.001
aF-0.001
aF-0.001
aF-0.001
aF-0.001
aF-0.001
aF-0.001
aF-0.001
aF-0.001
aF-0.001
aF-0.001
aF-0.001
aF-0.001
aF-0.001
aF-0.001
aF-0.001
aF-0.001
aF-0.001
aF-0.001
aF-0.001
aF-0.001
aF-0.001
aF-0.001
aF-0.001
aF-0.001
aF-0.001
aF-0.001
aF-0.001
aF-0.001
aF-0.001
aF-0.001
aF-0.001
aF-0.001
aF-0.001
aF-0.001
aF-0.001
aF-0.001
aF-0.001
aF-0.001
aa(lp141
F-0.001
aF-0.001
aF-0.001
aF-0.001
aF-0.001
aF-0.001
aF-0.001
aF-0.001
aF-0.001
aF-0.001
aF-0.001
aF-0.001
aF-0.001
aF-0.001
aF-0.001
aF-0.001
aF-0.001
aF-0.001
aF-0.001
aF-0.001
aF-0.001
aF-0.001
aF-0.001
aF-0.001
aF-0.001
aF-0.001
aF-0.001
aF-0.001
aF-0.001
aF-0.001
aF-0.001
aF-0.001
aF-0.001
aF-0.001
aF-0.001
aF-0.001
aF-0.001
aF-0.001
aF-0.001
aF-0.001
aF-0.001
aF-0.001
aF-0.001
aF-0.001
aF-0.001
aF-0.001
aF-0.001
aF-0.001
aF-0.001
aF-0.001
aF-0.001
aF-0.001
aF-0.001
aF-0.001
aF-0.001
aF-0.001
aF-0.001
aF-0.001
aF-0.001
aF-0.001
aF-0.001
aF-0.001
aF-0.001
aF-0.001
aF-0.001
aF-0.001
aF-0.001
aa(lp142
F-0.001
aF-0.001
aF-0.001
aF-0.001
aF-0.001
aF-0.001
aF-0.001
aF-0.001
aF-0.001
aF-0.001
aF-0.001
aF-0.001
aF-0.001
aF-0.001
aF-0.001
aF-0.001
aF-0.001
aF-0.001
aF-0.001
aF-0.001
aF-0.001
aF-0.001
aF-0.001
aF-0.001
aF-0.001
aF-0.001
aF-0.001
aF-0.001
aF-0.001
aF-0.001
aF-0.001
aF-0.001
aF-0.001
aF-0.001
aF-0.001
aF-0.001
aF-0.001
aF-0.001
aF-0.001
aF-0.001
aF-0.001
aF-0.001
aF-0.001
aF-0.001
aF-0.001
aF-0.001
aF-0.001
aF-0.001
aF-0.001
aF-0.001
aF-0.001
aF-0.001
aF-0.001
aF-0.001
aF-0.001
aF-0.001
aF-0.001
aF-0.001
aF-0.001
aF-0.001
aF-0.001
aF-0.001
aa(lp143
F-0.001
aF-0.001
aF-0.001
aF-0.001
aF-0.001
aF-0.001
aF-0.001
aF-0.001
aF-0.001
aF-0.001
aF-0.001
aF-0.001
aF-0.001
aF-0.001
aF-0.001
aF-0.001
aF-0.001
aF-0.001
aF-0.001
aF-0.001
aF-0.001
aF-0.001
aF-0.001
aF-0.001
aF-0.001
aF-0.001
aF-0.001
aF-0.001
aF-0.001
aF-0.001
aF-0.001
aF-0.001
aF-0.001
aF-0.001
aF-0.001
aF-0.001
aF-0.001
aF-0.001
aF-0.001
aF-0.001
aF-0.001
aF-0.001
aF-0.001
aF-0.001
aF-0.001
aF-0.001
aF-0.001
aF-0.001
aF-0.001
aF-0.001
aF-0.001
aF-0.001
aF-0.001
aF-0.001
aF-0.001
aF-0.001
aF-0.001
aF-0.001
aF-0.001
aF-0.001
aF-0.001
aF-0.001
aF-0.001
aF-0.001
aF-0.001
aF-0.001
aF-0.001
aF-0.001
aF-0.001
aF-0.001
aF-0.001
aF-0.001
aa(lp144
F-0.001
aF-0.001
aF-0.001
aF-0.001
aF-0.001
aF-0.001
aF-0.001
aF-0.001
aF-0.001
aF-0.001
aF-0.001
aF-0.001
aF-0.001
aF-0.001
aF-0.001
aF-0.001
aF-0.001
aF-0.001
aF-0.001
aF-0.001
aF-0.001
aF-0.001
aF-0.001
aF-0.001
aF-0.001
aF-0.001
aF-0.001
aF-0.001
aF-0.001
aF-0.001
aF-0.001
aF-0.001
aF-0.001
aF-0.001
aF-0.001
aF-0.001
aF-0.001
aF-0.001
aF-0.001
aF-0.001
aF-0.001
aF-0.001
aF-0.001
aF-0.001
aF-0.001
aF-0.001
aF-0.001
aF-0.001
aF-0.001
aF-0.001
aF-0.001
aF-0.001
aF-0.001
aF-0.001
aF-0.001
aa(lp145
F-0.001
aF-0.001
aF-0.001
aF-0.001
aF-0.001
aF-0.001
aF-0.001
aF-0.001
aF-0.001
aF-0.001
aF-0.001
aF-0.001
aF-0.001
aF-0.001
aF-0.001
aF-0.001
aF-0.001
aF-0.001
aF-0.001
aF-0.001
aF-0.001
aF-0.001
aF-0.001
aF-0.001
aF-0.001
aF-0.001
aF-0.001
aF-0.001
aF-0.001
aF-0.001
aF-0.001
aF-0.001
aF-0.001
aF-0.001
aF-0.001
aF-0.001
aF-0.001
aF-0.001
aF-0.001
aF-0.001
aF-0.001
aF-0.001
aF-0.001
aF-0.001
aF-0.001
aF-0.001
aF-0.001
aF-0.001
aF-0.001
aF-0.001
aF-0.001
aF-0.001
aF-0.001
aF-0.001
aF-0.001
aF-0.001
aF-0.001
aF-0.001
aF-0.001
aF-0.001
aa(lp146
F-0.001
aF-0.001
aF-0.001
aF-0.001
aF-0.001
aF-0.001
aF-0.001
aF-0.001
aF-0.001
aF-0.001
aF-0.001
aF-0.001
aF-0.001
aF-0.001
aF-0.001
aF-0.001
aF-0.001
aF-0.001
aF-0.001
aF-0.001
aF-0.001
aF-0.001
aF-0.001
aF-0.001
aF-0.001
aF-0.001
aF-0.001
aF-0.001
aF-0.001
aF-0.001
aF-0.001
aF-0.001
aF-0.001
aF-0.001
aF-0.001
aF-0.001
aF-0.001
aF-0.001
aF-0.001
aF-0.001
aF-0.001
aF-0.001
aF-0.001
aF-0.001
aF-0.001
aF-0.001
aF-0.001
aF-0.001
aF-0.001
aF-0.001
aF-0.001
aa(lp147
F-0.001
aF-0.001
aF-0.001
aF-0.001
aF-0.001
aF-0.001
aF-0.001
aF-0.001
aF-0.001
aF-0.001
aF-0.001
aF-0.001
aF-0.001
aF-0.001
aF-0.001
aF-0.001
aF-0.001
aF-0.001
aF-0.001
aF-0.001
aF-0.001
aF-0.001
aF-0.001
aF-0.001
aF-0.001
aF-0.001
aF-0.001
aF-0.001
aF-0.001
aF-0.001
aF-0.001
aF-0.001
aF-0.001
aF-0.001
aF-0.001
aF-0.001
aF-0.001
aF-0.001
aF-0.001
aF-0.001
aF-0.001
aF-0.001
aF-0.001
aF-0.001
aF-0.001
aF-0.001
aF-0.001
aF-0.001
aF-0.001
aF-0.001
aF-0.001
aF-0.001
aF-0.001
aF-0.001
aF-0.001
aF-0.001
aF-0.001
aF-0.001
aa(lp148
F-0.001
aF-0.001
aF-0.001
aF-0.001
aF-0.001
aF-0.001
aF-0.001
aF-0.001
aF-0.001
aF-0.001
aF-0.001
aF-0.001
aF-0.001
aF-0.001
aF-0.001
aF-0.001
aF-0.001
aF-0.001
aF-0.001
aF-0.001
aF-0.001
aF-0.001
aF-0.001
aF-0.001
aF-0.001
aF-0.001
aF-0.001
aF-0.001
aF-0.001
aF-0.001
aF-0.001
aF-0.001
aF-0.001
aF-0.001
aF-0.001
aF-0.001
aF-0.001
aF-0.001
aF-0.001
aF-0.001
aF-0.001
aF-0.001
aF-0.001
aF-0.001
aF-0.001
aF-0.001
aF-0.001
aF-0.001
aF-0.001
aF-0.001
aF-0.001
aF-0.001
aF-0.001
aF-0.001
aF-0.001
aF-0.001
aF-0.001
aF-0.001
aF-0.001
aF-0.001
aF-0.001
aF-0.001
aa(lp149
F-0.001
aF-0.001
aF-0.001
aF-0.001
aF-0.001
aF-0.001
aF-0.001
aF-0.001
aF-0.001
aF-0.001
aF-0.001
aF-0.001
aF-0.001
aF-0.001
aF-0.001
aF-0.001
aF-0.001
aF-0.001
aF-0.001
aF-0.001
aF-0.001
aF-0.001
aF-0.001
aF-0.001
aF-0.001
aF-0.001
aF-0.001
aF-0.001
aF-0.001
aF-0.001
aF-0.001
aF-0.001
aF-0.001
aF-0.001
aF-0.001
aF-0.001
aF-0.001
aF-0.001
aF-0.001
aF-0.001
aF-0.001
aF-0.001
aF-0.001
aF-0.001
aF-0.001
aF-0.001
aF-0.001
aF-0.001
aF-0.001
aF-0.001
aF-0.001
aF-0.001
aF-0.001
aF-0.001
aF-0.001
aa(lp150
F-0.001
aF-0.001
aF-0.001
aF-0.001
aF-0.001
aF-0.001
aF-0.001
aF-0.001
aF-0.001
aF-0.001
aF-0.001
aF-0.001
aF-0.001
aF-0.001
aF-0.001
aF-0.001
aF-0.001
aF-0.001
aF-0.001
aF-0.001
aF-0.001
aF-0.001
aF-0.001
aF-0.001
aF-0.001
aF-0.001
aF-0.001
aF-0.001
aF-0.001
aF-0.001
aF-0.001
aF-0.001
aF-0.001
aF-0.001
aF-0.001
aF-0.001
aF-0.001
aF-0.001
aF-0.001
aF-0.001
aF-0.001
aF-0.001
aF-0.001
aF-0.001
aF-0.001
aF-0.001
aF-0.001
aF-0.001
aF-0.001
aF-0.001
aF-0.001
aF-0.001
aF-0.001
aF-0.001
aF-0.001
aF-0.001
aF-0.001
aF-0.001
aF-0.001
aF-0.001
aF-0.001
aa(lp151
F-0.001
aF-0.001
aF-0.001
aF-0.001
aF-0.001
aF-0.001
aF-0.001
aF-0.001
aF-0.001
aF-0.001
aF-0.001
aF-0.001
aF-0.001
aF-0.001
aF-0.001
aF-0.001
aF-0.001
aF-0.001
aF-0.001
aF-0.001
aF-0.001
aF-0.001
aF-0.001
aF-0.001
aF-0.001
aF-0.001
aF-0.001
aF-0.001
aF-0.001
aF-0.001
aF-0.001
aF-0.001
aF-0.001
aF-0.001
aF-0.001
aF-0.001
aF-0.001
aF-0.001
aF-0.001
aF-0.001
aF-0.001
aF-0.001
aF-0.001
aF-0.001
aF-0.001
aF-0.001
aF-0.001
aF-0.001
aF-0.001
aF-0.001
aF-0.001
aF-0.001
aF-0.001
aF-0.001
aF-0.001
aF-0.001
aF-0.001
aF-0.001
aF-0.001
aF-0.001
aF-0.001
aF-0.001
aF-0.001
aF-0.001
aF-0.001
aF-0.001
aF-0.001
aF-0.001
aF-0.001
aF-0.001
aa(lp152
F-0.001
aF-0.001
aF-0.001
aF-0.001
aF-0.001
aF-0.001
aF-0.001
aF-0.001
aF-0.001
aF-0.001
aF-0.001
aF-0.001
aF-0.001
aF-0.001
aF-0.001
aF-0.001
aF-0.001
aF-0.001
aF-0.001
aF-0.001
aF-0.001
aF-0.001
aF-0.001
aF-0.001
aF-0.001
aF-0.001
aF-0.001
aF-0.001
aF-0.001
aF-0.001
aF-0.001
aF-0.001
aF-0.001
aF-0.001
aF-0.001
aF-0.001
aF-0.001
aF-0.001
aF-0.001
aF-0.001
aF-0.001
aF-0.001
aF-0.001
aF-0.001
aF-0.001
aF-0.001
aF-0.001
aF-0.001
aF-0.001
aF-0.001
aF-0.001
aF-0.001
aF-0.001
aF-0.001
aF-0.001
aF-0.001
aF-0.001
aF-0.001
aF-0.001
aa(lp153
F-0.001
aF-0.001
aF-0.001
aF-0.001
aF-0.001
aF-0.001
aF-0.001
aF-0.001
aF-0.001
aF-0.001
aF-0.001
aF-0.001
aF-0.001
aF-0.001
aF-0.001
aF-0.001
aF-0.001
aF-0.001
aF-0.001
aF-0.001
aF-0.001
aF-0.001
aF-0.001
aF-0.001
aF-0.001
aF-0.001
aF-0.001
aF-0.001
aF-0.001
aF-0.001
aF-0.001
aF-0.001
aF-0.001
aF-0.001
aF-0.001
aF-0.001
aF-0.001
aF-0.001
aF-0.001
aF-0.001
aF-0.001
aF-0.001
aF-0.001
aF-0.001
aF-0.001
aF-0.001
aF-0.001
aF-0.001
aF-0.001
aF-0.001
aF-0.001
aF-0.001
aF-0.001
aF-0.001
aF-0.001
aF-0.001
aa(lp154
F-0.001
aF-0.001
aF-0.001
aF-0.001
aF-0.001
aF-0.001
aF-0.001
aF-0.001
aF-0.001
aF-0.001
aF-0.001
aF-0.001
aF-0.001
aF-0.001
aF-0.001
aF-0.001
aF-0.001
aF-0.001
aF-0.001
aF-0.001
aF-0.001
aF-0.001
aF-0.001
aF-0.001
aF-0.001
aF-0.001
aF-0.001
aF-0.001
aF-0.001
aF-0.001
aF-0.001
aF-0.001
aF-0.001
aF-0.001
aF-0.001
aF-0.001
aF-0.001
aF-0.001
aF-0.001
aF-0.001
aF-0.001
aF-0.001
aF-0.001
aF-0.001
aF-0.001
aF-0.001
aF-0.001
aF-0.001
aF-0.001
aF-0.001
aF-0.001
aF-0.001
aF-0.001
aF-0.001
aF-0.001
aF-0.001
aF-0.001
aa(lp155
F-0.001
aF-0.001
aF-0.001
aF-0.001
aF-0.001
aF-0.001
aF-0.001
aF-0.001
aF-0.001
aF-0.001
aF-0.001
aF-0.001
aF-0.001
aF-0.001
aF-0.001
aF-0.001
aF-0.001
aF-0.001
aF-0.001
aF-0.001
aF-0.001
aF-0.001
aF-0.001
aF-0.001
aF-0.001
aF-0.001
aF-0.001
aF-0.001
aF-0.001
aF-0.001
aF-0.001
aF-0.001
aF-0.001
aF-0.001
aF-0.001
aF-0.001
aF-0.001
aF-0.001
aF-0.001
aF-0.001
aF-0.001
aF-0.001
aF-0.001
aF-0.001
aF-0.001
aF-0.001
aF-0.001
aF-0.001
aF-0.001
aF-0.001
aF-0.001
aF-0.001
aF-0.001
aF-0.001
aF-0.001
aF-0.001
aF-0.001
aF-0.001
aa(lp156
F-0.001
aF-0.001
aF-0.001
aF-0.001
aF-0.001
aF-0.001
aF-0.001
aF-0.001
aF-0.001
aF-0.001
aF-0.001
aF-0.001
aF-0.001
aF-0.001
aF-0.001
aF-0.001
aF-0.001
aF-0.001
aF-0.001
aF-0.001
aF-0.001
aF-0.001
aF-0.001
aF-0.001
aF-0.001
aF-0.001
aF-0.001
aF-0.001
aF-0.001
aF-0.001
aF-0.001
aF-0.001
aF-0.001
aF-0.001
aF-0.001
aF-0.001
aF-0.001
aF-0.001
aF-0.001
aF-0.001
aF-0.001
aF-0.001
aF-0.001
aF-0.001
aF-0.001
aF-0.001
aF-0.001
aF-0.001
aF-0.001
aF-0.001
aF-0.001
aF-0.001
aF-0.001
aF-0.001
aF-0.001
aF-0.001
aF-0.001
aF-0.001
aF-0.001
aF-0.001
aF-0.001
aF-0.001
aF-0.001
aF-0.001
aF-0.001
aa(lp157
F-0.001
aF-0.001
aF-0.001
aF-0.001
aF-0.001
aF-0.001
aF-0.001
aF-0.001
aF-0.001
aF-0.001
aF-0.001
aF-0.001
aF-0.001
aF-0.001
aF-0.001
aF-0.001
aF-0.001
aF-0.001
aF-0.001
aF-0.001
aF-0.001
aF-0.001
aF-0.001
aF-0.001
aF-0.001
aF-0.001
aF-0.001
aF-0.001
aF-0.001
aF-0.001
aF-0.001
aF-0.001
aF-0.001
aF-0.001
aF-0.001
aF-0.001
aF-0.001
aF-0.001
aF-0.001
aF-0.001
aF-0.001
aF-0.001
aF-0.001
aF-0.001
aF-0.001
aF-0.001
aF-0.001
aF-0.001
aF-0.001
aF-0.001
aF-0.001
aF-0.001
aa(lp158
F-0.001
aF-0.001
aF-0.001
aF-0.001
aF-0.001
aF-0.001
aF-0.001
aF-0.001
aF-0.001
aF-0.001
aF-0.001
aF-0.001
aF-0.001
aF-0.001
aF-0.001
aF-0.001
aF-0.001
aF-0.001
aF-0.001
aF-0.001
aF-0.001
aF-0.001
aF-0.001
aF-0.001
aF-0.001
aF-0.001
aF-0.001
aF-0.001
aF-0.001
aF-0.001
aF-0.001
aF-0.001
aF-0.001
aF-0.001
aF-0.001
aF-0.001
aF-0.001
aF-0.001
aF-0.001
aF-0.001
aF-0.001
aF-0.001
aF-0.001
aF-0.001
aF-0.001
aF-0.001
aF-0.001
aF-0.001
aF-0.001
aF-0.001
aF-0.001
aF-0.001
aF-0.001
aF-0.001
aF-0.001
aa(lp159
F-0.001
aF-0.001
aF-0.001
aF-0.001
aF-0.001
aF-0.001
aF-0.001
aF-0.001
aF-0.001
aF-0.001
aF-0.001
aF-0.001
aF-0.001
aF-0.001
aF-0.001
aF-0.001
aF-0.001
aF-0.001
aF-0.001
aF-0.001
aF-0.001
aF-0.001
aF-0.001
aF-0.001
aF-0.001
aF-0.001
aF-0.001
aF-0.001
aF-0.001
aF-0.001
aF-0.001
aF-0.001
aF-0.001
aF-0.001
aF-0.001
aF-0.001
aF-0.001
aF-0.001
aF-0.001
aF-0.001
aF-0.001
aF-0.001
aF-0.001
aF-0.001
aF-0.001
aF-0.001
aF-0.001
aF-0.001
aF-0.001
aF-0.001
aF-0.001
aF-0.001
aF-0.001
aF-0.001
aF-0.001
aF-0.001
aF-0.001
aF-0.001
aF-0.001
aF-0.001
aF-0.001
aF-0.001
aF-0.001
aF-0.001
aF-0.001
aF-0.001
aF-0.001
aF-0.001
aa(lp160
F-0.001
aF-0.001
aF-0.001
aF-0.001
aF-0.001
aF-0.001
aF-0.001
aF-0.001
aF-0.001
aF-0.001
aF-0.001
aF-0.001
aF-0.001
aF-0.001
aF-0.001
aF-0.001
aF-0.001
aF-0.001
aF-0.001
aF-0.001
aF-0.001
aF-0.001
aF-0.001
aF-0.001
aF-0.001
aF-0.001
aF-0.001
aF-0.001
aF-0.001
aF-0.001
aF-0.001
aF-0.001
aF-0.001
aF-0.001
aF-0.001
aF-0.001
aF-0.001
aF-0.001
aF-0.001
aF-0.001
aF-0.001
aF-0.001
aF-0.001
aF-0.001
aF-0.001
aF-0.001
aF-0.001
aF-0.001
aF-0.001
aF-0.001
aF-0.001
aF-0.001
aF-0.001
aF-0.001
aF-0.001
aF-0.001
aF-0.001
aF-0.001
aF-0.001
aF-0.001
aF-0.001
aF-0.001
aF-0.001
aF-0.001
aF-0.001
aF-0.001
aF-0.001
aa(lp161
F-0.001
aF-0.001
aF-0.001
aF-0.001
aF-0.001
aF-0.001
aF-0.001
aF-0.001
aF-0.001
aF-0.001
aF-0.001
aF-0.001
aF-0.001
aF-0.001
aF-0.001
aF-0.001
aF-0.001
aF-0.001
aF-0.001
aF-0.001
aF-0.001
aF-0.001
aF-0.001
aF-0.001
aF-0.001
aF-0.001
aF-0.001
aF-0.001
aF-0.001
aF-0.001
aF-0.001
aF-0.001
aF-0.001
aF-0.001
aF-0.001
aF-0.001
aF-0.001
aF-0.001
aF-0.001
aF-0.001
aF-0.001
aF-0.001
aF-0.001
aF-0.001
aF-0.001
aF-0.001
aF-0.001
aF-0.001
aF-0.001
aF-0.001
aF-0.001
aF-0.001
aF-0.001
aF-0.001
aF-0.001
aF-0.001
aF-0.001
aF-0.001
aF-0.001
aa(lp162
F-0.001
aF-0.001
aF-0.001
aF-0.001
aF-0.001
aF-0.001
aF-0.001
aF-0.001
aF-0.001
aF-0.001
aF-0.001
aF-0.001
aF-0.001
aF-0.001
aF-0.001
aF-0.001
aF-0.001
aF-0.001
aF-0.001
aF-0.001
aF-0.001
aF-0.001
aF-0.001
aF-0.001
aF-0.001
aF-0.001
aF-0.001
aF-0.001
aF-0.001
aF-0.001
aF-0.001
aF-0.001
aF-0.001
aF-0.001
aF-0.001
aF-0.001
aF-0.001
aF-0.001
aF-0.001
aF-0.001
aF-0.001
aF-0.001
aF-0.001
aF-0.001
aF-0.001
aF-0.001
aF-0.001
aF-0.001
aF-0.001
aF-0.001
aF-0.001
aF-0.001
aa(lp163
F-0.001
aF-0.001
aF-0.001
aF-0.001
aF-0.001
aF-0.001
aF-0.001
aF-0.001
aF-0.001
aF-0.001
aF-0.001
aF-0.001
aF-0.001
aF-0.001
aF-0.001
aF-0.001
aF-0.001
aF-0.001
aF-0.001
aF-0.001
aF-0.001
aF-0.001
aF-0.001
aF-0.001
aF-0.001
aF-0.001
aF-0.001
aF-0.001
aF-0.001
aF-0.001
aF-0.001
aF-0.001
aF-0.001
aF-0.001
aF-0.001
aF-0.001
aF-0.001
aF-0.001
aF-0.001
aF-0.001
aF-0.001
aF-0.001
aF-0.001
aF-0.001
aF-0.001
aF-0.001
aF-0.001
aF-0.001
aF-0.001
aF-0.001
aF-0.001
aF-0.001
aF-0.001
aF-0.001
aF-0.001
aF-0.001
aF-0.001
aF-0.001
aF-0.001
aF-0.001
aF-0.001
aF-0.001
aF-0.001
aF-0.001
aF-0.001
aF-0.001
aF-0.001
aF-0.001
aF-0.001
aa(lp164
F-0.001
aF-0.001
aF-0.001
aF-0.001
aF-0.001
aF-0.001
aF-0.001
aF-0.001
aF-0.001
aF-0.001
aF-0.001
aF-0.001
aF-0.001
aF-0.001
aF-0.001
aF-0.001
aF-0.001
aF-0.001
aF-0.001
aF-0.001
aF-0.001
aF-0.001
aF-0.001
aF-0.001
aF-0.001
aF-0.001
aF-0.001
aF-0.001
aF-0.001
aF-0.001
aF-0.001
aF-0.001
aF-0.001
aF-0.001
aF-0.001
aF-0.001
aF-0.001
aF-0.001
aF-0.001
aF-0.001
aF-0.001
aF-0.001
aF-0.001
aF-0.001
aF-0.001
aF-0.001
aF-0.001
aF-0.001
aF-0.001
aF-0.001
aF-0.001
aF-0.001
aF-0.001
aF-0.001
aF-0.001
aa(lp165
F-0.001
aF-0.001
aF-0.001
aF-0.001
aF-0.001
aF-0.001
aF-0.001
aF-0.001
aF-0.001
aF-0.001
aF-0.001
aF-0.001
aF-0.001
aF-0.001
aF-0.001
aF-0.001
aF-0.001
aF-0.001
aF-0.001
aF-0.001
aF-0.001
aF-0.001
aF-0.001
aF-0.001
aF-0.001
aF-0.001
aF-0.001
aF-0.001
aF-0.001
aF-0.001
aF-0.001
aF-0.001
aF-0.001
aF-0.001
aF-0.001
aF-0.001
aF-0.001
aF-0.001
aF-0.001
aF-0.001
aF-0.001
aF-0.001
aF-0.001
aF-0.001
aF-0.001
aF-0.001
aF-0.001
aF-0.001
aF-0.001
aF-0.001
aF-0.001
aF-0.001
aF-0.001
aF-0.001
aF-0.001
aF-0.001
aF-0.001
aF-0.001
aF-0.001
aF-0.001
aF-0.001
aF-0.001
aF-0.001
aF-0.001
aF-0.001
aF-0.001
aF-0.001
aF-0.001
aF-0.001
aF-0.001
aF-0.001
aF-0.001
aF-0.001
aa(lp166
F-0.001
aF-0.001
aF-0.001
aF-0.001
aF-0.001
aF-0.001
aF-0.001
aF-0.001
aF-0.001
aF-0.001
aF-0.001
aF-0.001
aF-0.001
aF-0.001
aF-0.001
aF-0.001
aF-0.001
aF-0.001
aF-0.001
aF-0.001
aF-0.001
aF-0.001
aF-0.001
aF-0.001
aF-0.001
aF-0.001
aF-0.001
aF-0.001
aF-0.001
aF-0.001
aF-0.001
aF-0.001
aF-0.001
aF-0.001
aF-0.001
aF-0.001
aF-0.001
aF-0.001
aF-0.001
aF-0.001
aF-0.001
aF-0.001
aF-0.001
aF-0.001
aF-0.001
aF-0.001
aF-0.001
aF-0.001
aF-0.001
aF-0.001
aF-0.001
aF-0.001
aF-0.001
aF-0.001
aF-0.001
aF-0.001
aF-0.001
aF-0.001
aF-0.001
aF-0.001
aa(lp167
F-0.001
aF-0.001
aF-0.001
aF-0.001
aF-0.001
aF-0.001
aF-0.001
aF-0.001
aF-0.001
aF-0.001
aF-0.001
aF-0.001
aF-0.001
aF-0.001
aF-0.001
aF-0.001
aF-0.001
aF-0.001
aF-0.001
aF-0.001
aF-0.001
aF-0.001
aF-0.001
aF-0.001
aF-0.001
aF-0.001
aF-0.001
aF-0.001
aF-0.001
aF-0.001
aF-0.001
aF-0.001
aF-0.001
aF-0.001
aF-0.001
aF-0.001
aF-0.001
aF-0.001
aF-0.001
aF-0.001
aF-0.001
aF-0.001
aF-0.001
aF-0.001
aF-0.001
aF-0.001
aF-0.001
aF-0.001
aF-0.001
aF-0.001
aF-0.001
aF-0.001
aF-0.001
aF-0.001
aF-0.001
aF-0.001
aF-0.001
aF-0.001
aF-0.001
aF-0.001
aF-0.001
aF-0.001
aa(lp168
F-0.001
aF-0.001
aF-0.001
aF-0.001
aF-0.001
aF-0.001
aF-0.001
aF-0.001
aF-0.001
aF-0.001
aF-0.001
aF-0.001
aF-0.001
aF-0.001
aF-0.001
aF-0.001
aF-0.001
aF-0.001
aF-0.001
aF-0.001
aF-0.001
aF-0.001
aF-0.001
aF-0.001
aF-0.001
aF-0.001
aF-0.001
aF-0.001
aF-0.001
aF-0.001
aF-0.001
aF-0.001
aF-0.001
aF-0.001
aF-0.001
aF-0.001
aF-0.001
aF-0.001
aF-0.001
aF-0.001
aF-0.001
aF-0.001
aF-0.001
aF-0.001
aF-0.001
aF-0.001
aF-0.001
aF-0.001
aF-0.001
aF-0.001
aF-0.001
aF-0.001
aF-0.001
aF-0.001
aF-0.001
aF-0.001
aF-0.001
aF-0.001
aF-0.001
aF-0.001
aF-0.001
aF-0.001
aF-0.001
aa(lp169
F-0.001
aF-0.001
aF-0.001
aF-0.001
aF-0.001
aF-0.001
aF-0.001
aF-0.001
aF-0.001
aF-0.001
aF-0.001
aF-0.001
aF-0.001
aF-0.001
aF-0.001
aF-0.001
aF-0.001
aF-0.001
aF-0.001
aF-0.001
aF-0.001
aF-0.001
aF-0.001
aF-0.001
aF-0.001
aF-0.001
aF-0.001
aF-0.001
aF-0.001
aF-0.001
aF-0.001
aF-0.001
aF-0.001
aF-0.001
aF-0.001
aF-0.001
aF-0.001
aF-0.001
aF-0.001
aF-0.001
aF-0.001
aF-0.001
aF-0.001
aF-0.001
aF-0.001
aF-0.001
aF-0.001
aF-0.001
aF-0.001
aF-0.001
aF-0.001
aF-0.001
aF-0.001
aF-0.001
aF-0.001
aF-0.001
aF-0.001
aF-0.001
aF-0.001
aF-0.001
aF-0.001
aF-0.001
aa(lp170
F-0.001
aF-0.001
aF-0.001
aF-0.001
aF-0.001
aF-0.001
aF-0.001
aF-0.001
aF-0.001
aF-0.001
aF-0.001
aF-0.001
aF-0.001
aF-0.001
aF-0.001
aF-0.001
aF-0.001
aF-0.001
aF-0.001
aF-0.001
aF-0.001
aF-0.001
aF-0.001
aF-0.001
aF-0.001
aF-0.001
aF-0.001
aF-0.001
aF-0.001
aF-0.001
aF-0.001
aF-0.001
aF-0.001
aF-0.001
aF-0.001
aF-0.001
aF-0.001
aF-0.001
aF-0.001
aF-0.001
aF-0.001
aF-0.001
aF-0.001
aF-0.001
aF-0.001
aF-0.001
aF-0.001
aF-0.001
aF-0.001
aF-0.001
aF-0.001
aF-0.001
aF-0.001
aF-0.001
aF-0.001
aa(lp171
F-0.001
aF-0.001
aF-0.001
aF-0.001
aF-0.001
aF-0.001
aF-0.001
aF-0.001
aF-0.001
aF-0.001
aF-0.001
aF-0.001
aF-0.001
aF-0.001
aF-0.001
aF-0.001
aF-0.001
aF-0.001
aF-0.001
aF-0.001
aF-0.001
aF-0.001
aF-0.001
aF-0.001
aF-0.001
aF-0.001
aF-0.001
aF-0.001
aF-0.001
aF-0.001
aF-0.001
aF-0.001
aF-0.001
aF-0.001
aF-0.001
aF-0.001
aF-0.001
aF-0.001
aF-0.001
aF-0.001
aF-0.001
aF-0.001
aF-0.001
aF-0.001
aF-0.001
aF-0.001
aF-0.001
aF-0.001
aF-0.001
aF-0.001
aF-0.001
aF-0.001
aa(lp172
F-0.001
aF-0.001
aF-0.001
aF-0.001
aF-0.001
aF-0.001
aF-0.001
aF-0.001
aF-0.001
aF-0.001
aF-0.001
aF-0.001
aF-0.001
aF-0.001
aF-0.001
aF-0.001
aF-0.001
aF-0.001
aF-0.001
aF-0.001
aF-0.001
aF-0.001
aF-0.001
aF-0.001
aF-0.001
aF-0.001
aF-0.001
aF-0.001
aF-0.001
aF-0.001
aF-0.001
aF-0.001
aF-0.001
aF-0.001
aF-0.001
aF-0.001
aF-0.001
aF-0.001
aF-0.001
aF-0.001
aF-0.001
aF-0.001
aF-0.001
aF-0.001
aF-0.001
aF-0.001
aF-0.001
aF-0.001
aF-0.001
aF-0.001
aF-0.001
aF-0.001
aF-0.001
aF-0.001
aF-0.001
aF-0.001
aF-0.001
aF-0.001
aF-0.001
aF-0.001
aa(lp173
F-0.001
aF-0.001
aF-0.001
aF-0.001
aF-0.001
aF-0.001
aF-0.001
aF-0.001
aF-0.001
aF-0.001
aF-0.001
aF-0.001
aF-0.001
aF-0.001
aF-0.001
aF-0.001
aF-0.001
aF-0.001
aF-0.001
aF-0.001
aF-0.001
aF-0.001
aF-0.001
aF-0.001
aF-0.001
aF-0.001
aF-0.001
aF-0.001
aF-0.001
aF-0.001
aF-0.001
aF-0.001
aF-0.001
aF-0.001
aF-0.001
aF-0.001
aF-0.001
aF-0.001
aF-0.001
aF-0.001
aF-0.001
aF-0.001
aF-0.001
aF-0.001
aF-0.001
aF-0.001
aF-0.001
aF-0.001
aF-0.001
aF-0.001
aF-0.001
aF-0.001
aF-0.001
aF-0.001
aF-0.001
aF-0.001
aF-0.001
aF-0.001
aF-0.001
aF-0.001
aa(lp174
F-0.001
aF-0.001
aF-0.001
aF-0.001
aF-0.001
aF-0.001
aF-0.001
aF-0.001
aF-0.001
aF-0.001
aF-0.001
aF-0.001
aF-0.001
aF-0.001
aF-0.001
aF-0.001
aF-0.001
aF-0.001
aF-0.001
aF-0.001
aF-0.001
aF-0.001
aF-0.001
aF-0.001
aF-0.001
aF-0.001
aF-0.001
aF-0.001
aF-0.001
aF-0.001
aF-0.001
aF-0.001
aF-0.001
aF-0.001
aF-0.001
aF-0.001
aF-0.001
aF-0.001
aF-0.001
aF-0.001
aF-0.001
aF-0.001
aF-0.001
aF-0.001
aF-0.001
aF-0.001
aF-0.001
aF-0.001
aF-0.001
aF-0.001
aF-0.001
aF-0.001
aF-0.001
aF-0.001
aF-0.001
aF-0.001
aF-0.001
aF-0.001
aF-0.001
aF-0.001
aF-0.001
aF-0.001
aF-0.001
aF-0.001
aa(lp175
F-0.001
aF-0.001
aF-0.001
aF-0.001
aF-0.001
aF-0.001
aF-0.001
aF-0.001
aF-0.001
aF-0.001
aF-0.001
aF-0.001
aF-0.001
aF-0.001
aF-0.001
aF-0.001
aF-0.001
aF-0.001
aF-0.001
aF-0.001
aF-0.001
aF-0.001
aF-0.001
aF-0.001
aF-0.001
aF-0.001
aF-0.001
aF-0.001
aF-0.001
aF-0.001
aF-0.001
aF-0.001
aF-0.001
aF-0.001
aF-0.001
aF-0.001
aF-0.001
aF-0.001
aF-0.001
aF-0.001
aF-0.001
aF-0.001
aF-0.001
aF-0.001
aF-0.001
aF-0.001
aF-0.001
aa(lp176
F-0.001
aF-0.001
aF-0.001
aF-0.001
aF-0.001
aF-0.001
aF-0.001
aF-0.001
aF-0.001
aF-0.001
aF-0.001
aF-0.001
aF-0.001
aF-0.001
aF-0.001
aF-0.001
aF-0.001
aF-0.001
aF-0.001
aF-0.001
aF-0.001
aF-0.001
aF-0.001
aF-0.001
aF-0.001
aF-0.001
aF-0.001
aF-0.001
aF-0.001
aF-0.001
aF-0.001
aF-0.001
aF-0.001
aF-0.001
aF-0.001
aF-0.001
aF-0.001
aF-0.001
aF-0.001
aF-0.001
aF-0.001
aF-0.001
aF-0.001
aF-0.001
aF-0.001
aF-0.001
aF-0.001
aF-0.001
aF-0.001
aF-0.001
aF-0.001
aF-0.001
aF-0.001
aF-0.001
aF-0.001
aF-0.001
aF-0.001
aF-0.001
aF-0.001
aa(lp177
F-0.001
aF-0.001
aF-0.001
aF-0.001
aF-0.001
aF-0.001
aF-0.001
aF-0.001
aF-0.001
aF-0.001
aF-0.001
aF-0.001
aF-0.001
aF-0.001
aF-0.001
aF-0.001
aF-0.001
aF-0.001
aF-0.001
aF-0.001
aF-0.001
aF-0.001
aF-0.001
aF-0.001
aF-0.001
aF-0.001
aF-0.001
aF-0.001
aF-0.001
aF-0.001
aF-0.001
aF-0.001
aF-0.001
aF-0.001
aF-0.001
aF-0.001
aF-0.001
aF-0.001
aF-0.001
aF-0.001
aF-0.001
aF-0.001
aF-0.001
aF-0.001
aF-0.001
aF-0.001
aF-0.001
aF-0.001
aF-0.001
aF-0.001
aF-0.001
aF-0.001
aF-0.001
aF-0.001
aF-0.001
aF-0.001
aF-0.001
aF-0.001
aF-0.001
aF-0.001
aF-0.001
aF-0.001
aF-0.001
aF-0.001
aa(lp178
F-0.001
aF-0.001
aF-0.001
aF-0.001
aF-0.001
aF-0.001
aF-0.001
aF-0.001
aF-0.001
aF-0.001
aF-0.001
aF-0.001
aF-0.001
aF-0.001
aF-0.001
aF-0.001
aF-0.001
aF-0.001
aF-0.001
aF-0.001
aF-0.001
aF-0.001
aF-0.001
aF-0.001
aF-0.001
aF-0.001
aF-0.001
aF-0.001
aF-0.001
aF-0.001
aF-0.001
aF-0.001
aF-0.001
aF-0.001
aF-0.001
aF-0.001
aF-0.001
aF-0.001
aF-0.001
aF-0.001
aF-0.001
aF-0.001
aF-0.001
aF-0.001
aF-0.001
aF-0.001
aF-0.001
aF-0.001
aF-0.001
aF-0.001
aF-0.001
aa(lp179
F-0.001
aF-0.001
aF-0.001
aF-0.001
aF-0.001
aF-0.001
aF-0.001
aF-0.001
aF-0.001
aF-0.001
aF-0.001
aF-0.001
aF-0.001
aF-0.001
aF-0.001
aF-0.001
aF-0.001
aF-0.001
aF-0.001
aF-0.001
aF-0.001
aF-0.001
aF-0.001
aF-0.001
aF-0.001
aF-0.001
aF-0.001
aF-0.001
aF-0.001
aF-0.001
aF-0.001
aF-0.001
aF-0.001
aF-0.001
aF-0.001
aF-0.001
aF-0.001
aF-0.001
aF-0.001
aF-0.001
aF-0.001
aF-0.001
aF-0.001
aF-0.001
aF-0.001
aF-0.001
aF-0.001
aF-0.001
aF-0.001
aF-0.001
aF-0.001
aF-0.001
aa(lp180
F-0.001
aF-0.001
aF-0.001
aF-0.001
aF-0.001
aF-0.001
aF-0.001
aF-0.001
aF-0.001
aF-0.001
aF-0.001
aF-0.001
aF-0.001
aF-0.001
aF-0.001
aF-0.001
aF-0.001
aF-0.001
aF-0.001
aF-0.001
aF-0.001
aF-0.001
aF-0.001
aF-0.001
aF-0.001
aF-0.001
aF-0.001
aF-0.001
aF-0.001
aF-0.001
aF-0.001
aF-0.001
aF-0.001
aF-0.001
aF-0.001
aF-0.001
aF-0.001
aF-0.001
aF-0.001
aF-0.001
aF-0.001
aF-0.001
aF-0.001
aF-0.001
aF-0.001
aF-0.001
aF-0.001
aF-0.001
aF-0.001
aF-0.001
aF-0.001
aF-0.001
aF-0.001
aF-0.001
aF-0.001
aF-0.001
aF-0.001
aF-0.001
aa(lp181
F-0.001
aF-0.001
aF-0.001
aF-0.001
aF-0.001
aF-0.001
aF-0.001
aF-0.001
aF-0.001
aF-0.001
aF-0.001
aF-0.001
aF-0.001
aF-0.001
aF-0.001
aF-0.001
aF-0.001
aF-0.001
aF-0.001
aF-0.001
aF-0.001
aF-0.001
aF-0.001
aF-0.001
aF-0.001
aF-0.001
aF-0.001
aF-0.001
aF-0.001
aF-0.001
aF-0.001
aF-0.001
aF-0.001
aF-0.001
aF-0.001
aF-0.001
aF-0.001
aF-0.001
aF-0.001
aF-0.001
aF-0.001
aF-0.001
aF-0.001
aF-0.001
aF-0.001
aF-0.001
aF-0.001
aF-0.001
aF-0.001
aF-0.001
aF-0.001
aF-0.001
aF-0.001
aa(lp182
F-0.001
aF-0.001
aF-0.001
aF-0.001
aF-0.001
aF-0.001
aF-0.001
aF-0.001
aF-0.001
aF-0.001
aF-0.001
aF-0.001
aF-0.001
aF-0.001
aF-0.001
aF-0.001
aF-0.001
aF-0.001
aF-0.001
aF-0.001
aF-0.001
aF-0.001
aF-0.001
aF-0.001
aF-0.001
aF-0.001
aF-0.001
aF-0.001
aF-0.001
aF-0.001
aF-0.001
aF-0.001
aF-0.001
aF-0.001
aF-0.001
aF-0.001
aF-0.001
aF-0.001
aF-0.001
aF-0.001
aF-0.001
aF-0.001
aF-0.001
aF-0.001
aF-0.001
aF-0.001
aF-0.001
aF-0.001
aF-0.001
aF-0.001
aF-0.001
aF-0.001
aF-0.001
aF-0.001
aF-0.001
aF-0.001
aF-0.001
aF-0.001
aF-0.001
aF-0.001
aF-0.001
aF-0.001
aF-0.001
aF-0.001
aF-0.001
aa(lp183
F-0.001
aF-0.001
aF-0.001
aF-0.001
aF-0.001
aF-0.001
aF-0.001
aF-0.001
aF-0.001
aF-0.001
aF-0.001
aF-0.001
aF-0.001
aF-0.001
aF-0.001
aF-0.001
aF-0.001
aF-0.001
aF-0.001
aF-0.001
aF-0.001
aF-0.001
aF-0.001
aF-0.001
aF-0.001
aF-0.001
aF-0.001
aF-0.001
aF-0.001
aF-0.001
aF-0.001
aF-0.001
aF-0.001
aF-0.001
aF-0.001
aF-0.001
aF-0.001
aF-0.001
aF-0.001
aF-0.001
aF-0.001
aF-0.001
aF-0.001
aF-0.001
aF-0.001
aF-0.001
aF-0.001
aF-0.001
aF-0.001
aF-0.001
aF-0.001
aF-0.001
aF-0.001
aF-0.001
aF-0.001
aF-0.001
aF-0.001
aF-0.001
aF-0.001
aF-0.001
aF-0.001
aF-0.001
aa(lp184
F-0.001
aF-0.001
aF-0.001
aF-0.001
aF-0.001
aF-0.001
aF-0.001
aF-0.001
aF-0.001
aF-0.001
aF-0.001
aF-0.001
aF-0.001
aF-0.001
aF-0.001
aF-0.001
aF-0.001
aF-0.001
aF-0.001
aF-0.001
aF-0.001
aF-0.001
aF-0.001
aF-0.001
aF-0.001
aF-0.001
aF-0.001
aF-0.001
aF-0.001
aF-0.001
aF-0.001
aF-0.001
aF-0.001
aF-0.001
aF-0.001
aF-0.001
aF-0.001
aF-0.001
aF-0.001
aF-0.001
aF-0.001
aF-0.001
aF-0.001
aF-0.001
aF-0.001
aF-0.001
aF-0.001
aa(lp185
F-0.001
aF-0.001
aF-0.001
aF-0.001
aF-0.001
aF-0.001
aF-0.001
aF-0.001
aF-0.001
aF-0.001
aF-0.001
aF-0.001
aF-0.001
aF-0.001
aF-0.001
aF-0.001
aF-0.001
aF-0.001
aF-0.001
aF-0.001
aF-0.001
aF-0.001
aF-0.001
aF-0.001
aF-0.001
aF-0.001
aF-0.001
aF-0.001
aF-0.001
aF-0.001
aF-0.001
aF-0.001
aF-0.001
aF-0.001
aF-0.001
aF-0.001
aF-0.001
aF-0.001
aF-0.001
aF-0.001
aF-0.001
aF-0.001
aF-0.001
aF-0.001
aF-0.001
aF-0.001
aF-0.001
aF-0.001
aF-0.001
aF-0.001
aF-0.001
aF-0.001
aF-0.001
aF-0.001
aF-0.001
aF-0.001
aF-0.001
aF-0.001
aF-0.001
aF-0.001
aF-0.001
aF-0.001
aa(lp186
F-0.001
aF-0.001
aF-0.001
aF-0.001
aF-0.001
aF-0.001
aF-0.001
aF-0.001
aF-0.001
aF-0.001
aF-0.001
aF-0.001
aF-0.001
aF-0.001
aF-0.001
aF-0.001
aF-0.001
aF-0.001
aF-0.001
aF-0.001
aF-0.001
aF-0.001
aF-0.001
aF-0.001
aF-0.001
aF-0.001
aF-0.001
aF-0.001
aF-0.001
aF-0.001
aF-0.001
aF-0.001
aF-0.001
aF-0.001
aF-0.001
aF-0.001
aF-0.001
aF-0.001
aF-0.001
aF-0.001
aF-0.001
aF-0.001
aF-0.001
aF-0.001
aF-0.001
aF-0.001
aF-0.001
aF-0.001
aF-0.001
aF-0.001
aF-0.001
aF-0.001
aF-0.001
aF-0.001
aF-0.001
aF-0.001
aF-0.001
aF-0.001
aF-0.001
aF-0.001
aF-0.001
aF-0.001
aF-0.001
aF-0.001
aF-0.001
aF-0.001
aa(lp187
F-0.001
aF-0.001
aF-0.001
aF-0.001
aF-0.001
aF-0.001
aF-0.001
aF-0.001
aF-0.001
aF-0.001
aF-0.001
aF-0.001
aF-0.001
aF-0.001
aF-0.001
aF-0.001
aF-0.001
aF-0.001
aF-0.001
aF-0.001
aF-0.001
aF-0.001
aF-0.001
aF-0.001
aF-0.001
aF-0.001
aF-0.001
aF-0.001
aF-0.001
aF-0.001
aF-0.001
aF-0.001
aF-0.001
aF-0.001
aF-0.001
aF-0.001
aF-0.001
aF-0.001
aF-0.001
aF-0.001
aF-0.001
aF-0.001
aF-0.001
aF-0.001
aF-0.001
aF-0.001
aF-0.001
aF-0.001
aF-0.001
aF-0.001
aF-0.001
aF-0.001
aF-0.001
aF-0.001
aF-0.001
aF-0.001
aF-0.001
aF-0.001
aF-0.001
aF-0.001
aF-0.001
aF-0.001
aF-0.001
aF-0.001
aF-0.001
aF-0.001
aF-0.001
aF-0.001
aa(lp188
F-0.001
aF-0.001
aF-0.001
aF-0.001
aF-0.001
aF-0.001
aF-0.001
aF-0.001
aF-0.001
aF-0.001
aF-0.001
aF-0.001
aF-0.001
aF-0.001
aF-0.001
aF-0.001
aF-0.001
aF-0.001
aF-0.001
aF-0.001
aF-0.001
aF-0.001
aF-0.001
aF-0.001
aF-0.001
aF-0.001
aF-0.001
aF-0.001
aF-0.001
aF-0.001
aF-0.001
aF-0.001
aF-0.001
aF-0.001
aF-0.001
aF-0.001
aF-0.001
aF-0.001
aF-0.001
aF-0.001
aF-0.001
aF-0.001
aF-0.001
aF-0.001
aF-0.001
aF-0.001
aF-0.001
aF-0.001
aF-0.001
aF-0.001
aF-0.001
aF-0.001
aF-0.001
aF-0.001
aF-0.001
aF-0.001
aF-0.001
aF-0.001
aF-0.001
aa(lp189
F-0.001
aF-0.001
aF-0.001
aF-0.001
aF-0.001
aF-0.001
aF-0.001
aF-0.001
aF-0.001
aF-0.001
aF-0.001
aF-0.001
aF-0.001
aF-0.001
aF-0.001
aF-0.001
aF-0.001
aF-0.001
aF-0.001
aF-0.001
aF-0.001
aF-0.001
aF-0.001
aF-0.001
aF-0.001
aF-0.001
aF-0.001
aF-0.001
aF-0.001
aF-0.001
aF-0.001
aF-0.001
aF-0.001
aF-0.001
aF-0.001
aF-0.001
aF-0.001
aF-0.001
aF-0.001
aF-0.001
aF-0.001
aF-0.001
aF-0.001
aF-0.001
aF-0.001
aF-0.001
aF-0.001
aF-0.001
aF-0.001
aF-0.001
aF-0.001
aF-0.001
aF-0.001
aF-0.001
aa(lp190
F-0.001
aF-0.001
aF-0.001
aF-0.001
aF-0.001
aF-0.001
aF-0.001
aF-0.001
aF-0.001
aF-0.001
aF-0.001
aF-0.001
aF-0.001
aF-0.001
aF-0.001
aF-0.001
aF-0.001
aF-0.001
aF-0.001
aF-0.001
aF-0.001
aF-0.001
aF-0.001
aF-0.001
aF-0.001
aF-0.001
aF-0.001
aF-0.001
aF-0.001
aF-0.001
aF-0.001
aF-0.001
aF-0.001
aF-0.001
aF-0.001
aF-0.001
aF-0.001
aF-0.001
aF-0.001
aF-0.001
aF-0.001
aF-0.001
aF-0.001
aF-0.001
aF-0.001
aF-0.001
aF-0.001
aF-0.001
aF-0.001
aF-0.001
aF-0.001
aF-0.001
aF-0.001
aF-0.001
aF-0.001
aF-0.001
aF-0.001
aF-0.001
aF-0.001
aF-0.001
aa(lp191
F-0.001
aF-0.001
aF-0.001
aF-0.001
aF-0.001
aF-0.001
aF-0.001
aF-0.001
aF-0.001
aF-0.001
aF-0.001
aF-0.001
aF-0.001
aF-0.001
aF-0.001
aF-0.001
aF-0.001
aF-0.001
aF-0.001
aF-0.001
aF-0.001
aF-0.001
aF-0.001
aF-0.001
aF-0.001
aF-0.001
aF-0.001
aF-0.001
aF-0.001
aF-0.001
aF-0.001
aF-0.001
aF-0.001
aF-0.001
aF-0.001
aF-0.001
aF-0.001
aF-0.001
aF-0.001
aF-0.001
aF-0.001
aF-0.001
aF-0.001
aF-0.001
aF-0.001
aF-0.001
aF-0.001
aF-0.001
aF-0.001
aF-0.001
aF-0.001
aF-0.001
aF-0.001
aF-0.001
aF-0.001
aF-0.001
aF-0.001
aF-0.001
aF-0.001
aa(lp192
F-0.001
aF-0.001
aF-0.001
aF-0.001
aF-0.001
aF-0.001
aF-0.001
aF-0.001
aF-0.001
aF-0.001
aF-0.001
aF-0.001
aF-0.001
aF-0.001
aF-0.001
aF-0.001
aF-0.001
aF-0.001
aF-0.001
aF-0.001
aF-0.001
aF-0.001
aF-0.001
aF-0.001
aF-0.001
aF-0.001
aF-0.001
aF-0.001
aF-0.001
aF-0.001
aF-0.001
aF-0.001
aF-0.001
aF-0.001
aF-0.001
aF-0.001
aF-0.001
aF-0.001
aF-0.001
aF-0.001
aF-0.001
aF-0.001
aF-0.001
aF-0.001
aF-0.001
aF-0.001
aF-0.001
aF-0.001
aF-0.001
aF-0.001
aF-0.001
aF-0.001
aF-0.001
aF-0.001
aF-0.001
aF-0.001
aF-0.001
aF-0.001
aF-0.001
aF-0.001
aF-0.001
aF-0.001
aF-0.001
aF-0.001
aF-0.001
aF-0.001
aF-0.001
aa(lp193
F-0.001
aF-0.001
aF-0.001
aF-0.001
aF-0.001
aF-0.001
aF-0.001
aF-0.001
aF-0.001
aF-0.001
aF-0.001
aF-0.001
aF-0.001
aF-0.001
aF-0.001
aF-0.001
aF-0.001
aF-0.001
aF-0.001
aF-0.001
aF-0.001
aF-0.001
aF-0.001
aF-0.001
aF-0.001
aF-0.001
aF-0.001
aF-0.001
aF-0.001
aF-0.001
aF-0.001
aF-0.001
aF-0.001
aF-0.001
aF-0.001
aF-0.001
aF-0.001
aF-0.001
aF-0.001
aF-0.001
aF-0.001
aF-0.001
aF-0.001
aF-0.001
aF-0.001
aF-0.001
aF-0.001
aF-0.001
aF-0.001
aF-0.001
aF-0.001
aF-0.001
aF-0.001
aF-0.001
aF-0.001
aF-0.001
aF-0.001
aF-0.001
aF-0.001
aa(lp194
F-0.001
aF-0.001
aF-0.001
aF-0.001
aF-0.001
aF-0.001
aF-0.001
aF-0.001
aF-0.001
aF-0.001
aF-0.001
aF-0.001
aF-0.001
aF-0.001
aF-0.001
aF-0.001
aF-0.001
aF-0.001
aF-0.001
aF-0.001
aF-0.001
aF-0.001
aF-0.001
aF-0.001
aF-0.001
aF-0.001
aF-0.001
aF-0.001
aF-0.001
aF-0.001
aF-0.001
aF-0.001
aF-0.001
aF-0.001
aF-0.001
aF-0.001
aF-0.001
aF-0.001
aF-0.001
aF-0.001
aF-0.001
aF-0.001
aF-0.001
aF-0.001
aF-0.001
aF-0.001
aF-0.001
aF-0.001
aF-0.001
aa(lp195
F-0.001
aF-0.001
aF-0.001
aF-0.001
aF-0.001
aF-0.001
aF-0.001
aF-0.001
aF-0.001
aF-0.001
aF-0.001
aF-0.001
aF-0.001
aF-0.001
aF-0.001
aF-0.001
aF-0.001
aF-0.001
aF-0.001
aF-0.001
aF-0.001
aF-0.001
aF-0.001
aF-0.001
aF-0.001
aF-0.001
aF-0.001
aF-0.001
aF-0.001
aF-0.001
aF-0.001
aF-0.001
aF-0.001
aF-0.001
aF-0.001
aF-0.001
aF-0.001
aF-0.001
aF-0.001
aF-0.001
aF-0.001
aF-0.001
aF-0.001
aF-0.001
aF-0.001
aF-0.001
aF-0.001
aF-0.001
aF-0.001
aF-0.001
aF-0.001
aF-0.001
aF-0.001
aF-0.001
aF-0.001
aa(lp196
F-0.001
aF-0.001
aF-0.001
aF-0.001
aF-0.001
aF-0.001
aF-0.001
aF-0.001
aF-0.001
aF-0.001
aF-0.001
aF-0.001
aF-0.001
aF-0.001
aF-0.001
aF-0.001
aF-0.001
aF-0.001
aF-0.001
aF-0.001
aF-0.001
aF-0.001
aF-0.001
aF-0.001
aF-0.001
aF-0.001
aF-0.001
aF-0.001
aF-0.001
aF-0.001
aF-0.001
aF-0.001
aF-0.001
aF-0.001
aF-0.001
aF-0.001
aF-0.001
aF-0.001
aF-0.001
aF-0.001
aF-0.001
aF-0.001
aF-0.001
aF-0.001
aF-0.001
aF-0.001
aF-0.001
aF-0.001
aF-0.001
aF-0.001
aF-0.001
aF-0.001
aF-0.001
aF-0.001
aF-0.001
aa(lp197
F-0.001
aF-0.001
aF-0.001
aF-0.001
aF-0.001
aF-0.001
aF-0.001
aF-0.001
aF-0.001
aF-0.001
aF-0.001
aF-0.001
aF-0.001
aF-0.001
aF-0.001
aF-0.001
aF-0.001
aF-0.001
aF-0.001
aF-0.001
aF-0.001
aF-0.001
aF-0.001
aF-0.001
aF-0.001
aF-0.001
aF-0.001
aF-0.001
aF-0.001
aF-0.001
aF-0.001
aF-0.001
aF-0.001
aF-0.001
aF-0.001
aF-0.001
aF-0.001
aF-0.001
aF-0.001
aF-0.001
aF-0.001
aF-0.001
aF-0.001
aF-0.001
aF-0.001
aF-0.001
aF-0.001
aF-0.001
aF-0.001
aF-0.001
aF-0.001
aF-0.001
aF-0.001
aF-0.001
aF-0.001
aa(lp198
F-0.001
aF-0.001
aF-0.001
aF-0.001
aF-0.001
aF-0.001
aF-0.001
aF-0.001
aF-0.001
aF-0.001
aF-0.001
aF-0.001
aF-0.001
aF-0.001
aF-0.001
aF-0.001
aF-0.001
aF-0.001
aF-0.001
aF-0.001
aF-0.001
aF-0.001
aF-0.001
aF-0.001
aF-0.001
aF-0.001
aF-0.001
aF-0.001
aF-0.001
aF-0.001
aF-0.001
aF-0.001
aF-0.001
aF-0.001
aF-0.001
aF-0.001
aF-0.001
aF-0.001
aF-0.001
aF-0.001
aF-0.001
aF-0.001
aF-0.001
aF-0.001
aF-0.001
aF-0.001
aF-0.001
aF-0.001
aF-0.001
aF-0.001
aF-0.001
aF-0.001
aF-0.001
aF-0.001
aF-0.001
aF-0.001
aF-0.001
aF-0.001
aF-0.001
aF-0.001
aF-0.001
aF-0.001
aF-0.001
aatp199
bsS'init_kwds'
p200
(dp201
sb.