ccopy_reg
_reconstructor
p0
(cbrian.connections.constructionmatrix
SparseConstructionMatrix
p1
c__builtin__
object
p2
Ntp3
Rp4
(dp5
S'rows'
p6
cnumpy.core.multiarray
_reconstruct
p7
(cnumpy
ndarray
p8
(I0
tp9
S'b'
p10
tp11
Rp12
(I1
(I80
tp13
cnumpy
dtype
p14
(S'O8'
p15
I0
I1
tp16
Rp17
(I3
S'|'
p18
NNNI-1
I-1
I63
tp19
bI00
(lp20
(lp21
I10
aI13
aI15
aI18
aI20
aI36
aI38
aI49
aI51
aI52
aI59
aI65
aI81
aI83
aI84
aI102
aI105
aI116
aI128
aI138
aI142
aI144
aI145
aI147
aI154
aI173
aI174
aI196
aI197
aI204
aI215
aI218
aI222
aI223
aI225
aI227
aI231
aI244
aI282
aI295
aI309
aI313
aI317
aI318
aI320
aI334
aI342
aI344
aI347
aI351
aI356
aI362
aI365
aI371
aI381
aI384
aI386
aI390
aI397
aa(lp22
I11
aI14
aI27
aI30
aI31
aI34
aI41
aI55
aI57
aI59
aI69
aI70
aI86
aI89
aI100
aI114
aI120
aI122
aI125
aI128
aI133
aI135
aI142
aI145
aI151
aI154
aI160
aI172
aI179
aI187
aI188
aI196
aI200
aI207
aI208
aI212
aI215
aI235
aI248
aI256
aI258
aI263
aI264
aI265
aI271
aI272
aI283
aI285
aI295
aI299
aI307
aI310
aI316
aI328
aI340
aI341
aI343
aI350
aI352
aI353
aI354
aI365
aI369
aI376
aI387
aI392
aa(lp23
I9
aI16
aI28
aI29
aI34
aI49
aI51
aI55
aI62
aI69
aI77
aI86
aI93
aI95
aI105
aI112
aI115
aI120
aI128
aI130
aI132
aI133
aI136
aI137
aI138
aI139
aI141
aI143
aI157
aI161
aI166
aI174
aI195
aI204
aI208
aI209
aI213
aI217
aI224
aI226
aI228
aI231
aI238
aI242
aI246
aI249
aI254
aI257
aI274
aI282
aI285
aI287
aI290
aI291
aI292
aI298
aI322
aI323
aI327
aI330
aI347
aI349
aI352
aI353
aI356
aI368
aI369
aI375
aI382
aI390
aI392
aI397
aI398
aa(lp24
I11
aI13
aI19
aI23
aI24
aI30
aI38
aI40
aI43
aI56
aI57
aI62
aI65
aI69
aI74
aI82
aI86
aI94
aI95
aI111
aI117
aI131
aI140
aI147
aI150
aI159
aI161
aI167
aI173
aI174
aI175
aI179
aI189
aI190
aI199
aI203
aI212
aI214
aI218
aI221
aI225
aI226
aI230
aI231
aI234
aI242
aI245
aI246
aI254
aI263
aI265
aI267
aI270
aI281
aI290
aI296
aI297
aI304
aI306
aI307
aI313
aI314
aI319
aI332
aI335
aI337
aI347
aI355
aI358
aI361
aI378
aI383
aI384
aI388
aI392
aI394
aa(lp25
I2
aI18
aI21
aI26
aI27
aI36
aI42
aI46
aI52
aI55
aI57
aI80
aI86
aI87
aI103
aI117
aI122
aI125
aI127
aI139
aI142
aI144
aI145
aI148
aI150
aI156
aI157
aI160
aI163
aI167
aI177
aI181
aI183
aI190
aI192
aI193
aI196
aI211
aI219
aI224
aI236
aI277
aI290
aI291
aI303
aI306
aI320
aI324
aI334
aI342
aI343
aI344
aI358
aI368
aI371
aI381
aI382
aI391
aI392
aI394
aI396
aI397
aa(lp26
I1
aI11
aI34
aI40
aI43
aI54
aI56
aI63
aI67
aI75
aI76
aI79
aI83
aI85
aI86
aI90
aI101
aI105
aI106
aI108
aI113
aI116
aI119
aI121
aI123
aI124
aI131
aI135
aI138
aI146
aI159
aI163
aI168
aI174
aI187
aI204
aI209
aI210
aI211
aI228
aI234
aI235
aI265
aI279
aI286
aI294
aI298
aI303
aI305
aI307
aI326
aI329
aI333
aI336
aI340
aI345
aI346
aI348
aI356
aI364
aI372
aa(lp27
I0
aI5
aI12
aI13
aI17
aI29
aI40
aI41
aI46
aI51
aI58
aI59
aI60
aI65
aI66
aI70
aI77
aI98
aI111
aI116
aI126
aI133
aI135
aI141
aI143
aI150
aI152
aI159
aI161
aI163
aI167
aI174
aI176
aI177
aI199
aI222
aI233
aI238
aI241
aI243
aI244
aI248
aI251
aI253
aI261
aI262
aI273
aI280
aI282
aI291
aI293
aI295
aI296
aI297
aI322
aI326
aI329
aI336
aI340
aI343
aI356
aI363
aI366
aI374
aI375
aI379
aa(lp28
I14
aI17
aI41
aI44
aI46
aI49
aI54
aI56
aI95
aI110
aI114
aI117
aI120
aI121
aI126
aI129
aI140
aI145
aI150
aI153
aI154
aI156
aI158
aI163
aI165
aI180
aI185
aI202
aI204
aI207
aI214
aI220
aI227
aI228
aI237
aI251
aI261
aI262
aI264
aI267
aI273
aI289
aI290
aI297
aI300
aI308
aI312
aI317
aI318
aI321
aI327
aI340
aI366
aI367
aI370
aI386
aI392
aI393
aI398
aa(lp29
I5
aI8
aI9
aI10
aI14
aI19
aI26
aI31
aI47
aI55
aI56
aI59
aI63
aI76
aI82
aI83
aI84
aI90
aI102
aI105
aI106
aI108
aI116
aI118
aI125
aI133
aI145
aI146
aI157
aI162
aI166
aI177
aI180
aI182
aI197
aI202
aI204
aI207
aI208
aI220
aI223
aI225
aI229
aI232
aI234
aI247
aI248
aI252
aI253
aI261
aI273
aI280
aI282
aI286
aI290
aI296
aI297
aI301
aI302
aI305
aI313
aI314
aI327
aI333
aI334
aI351
aI355
aI358
aI370
aI375
aI390
aa(lp30
I3
aI5
aI7
aI18
aI30
aI35
aI36
aI64
aI66
aI92
aI95
aI96
aI100
aI104
aI111
aI114
aI128
aI139
aI141
aI148
aI151
aI156
aI166
aI174
aI177
aI183
aI195
aI213
aI229
aI236
aI237
aI241
aI253
aI254
aI261
aI270
aI272
aI288
aI289
aI290
aI316
aI320
aI337
aI347
aI349
aI358
aI365
aI367
aI374
aI376
aI380
aI384
aI390
aa(lp31
I8
aI14
aI15
aI26
aI30
aI38
aI39
aI42
aI56
aI61
aI65
aI77
aI81
aI84
aI91
aI110
aI116
aI122
aI127
aI135
aI140
aI149
aI154
aI159
aI161
aI168
aI169
aI175
aI177
aI194
aI204
aI216
aI234
aI245
aI255
aI260
aI273
aI283
aI291
aI305
aI312
aI315
aI319
aI336
aI337
aI340
aI354
aI361
aI362
aI368
aI374
aI377
aI390
aI391
aI392
aa(lp32
I1
aI7
aI8
aI9
aI10
aI13
aI16
aI17
aI19
aI25
aI28
aI31
aI33
aI37
aI38
aI69
aI75
aI76
aI88
aI94
aI98
aI102
aI105
aI106
aI115
aI118
aI123
aI125
aI129
aI133
aI135
aI139
aI147
aI151
aI154
aI162
aI177
aI184
aI192
aI194
aI196
aI199
aI215
aI221
aI222
aI224
aI228
aI229
aI241
aI242
aI262
aI268
aI273
aI288
aI298
aI315
aI322
aI338
aI340
aI341
aI361
aI377
aI378
aI383
aI395
aa(lp33
I4
aI5
aI14
aI18
aI23
aI40
aI47
aI53
aI63
aI71
aI72
aI73
aI77
aI84
aI91
aI97
aI102
aI109
aI119
aI122
aI123
aI141
aI148
aI173
aI177
aI181
aI190
aI191
aI195
aI199
aI205
aI217
aI224
aI226
aI234
aI236
aI237
aI238
aI250
aI266
aI274
aI278
aI284
aI302
aI314
aI317
aI331
aI332
aI333
aI342
aI347
aI349
aI354
aI356
aI364
aI367
aI377
aI379
aI380
aI386
aI394
aI397
aa(lp34
I5
aI6
aI18
aI26
aI28
aI29
aI40
aI56
aI61
aI72
aI80
aI98
aI104
aI110
aI116
aI118
aI122
aI133
aI135
aI150
aI171
aI174
aI179
aI183
aI186
aI190
aI196
aI214
aI217
aI220
aI221
aI222
aI227
aI231
aI234
aI240
aI273
aI277
aI283
aI284
aI308
aI310
aI326
aI337
aI343
aI346
aI347
aI356
aI368
aI370
aI373
aI379
aa(lp35
I1
aI2
aI11
aI22
aI23
aI38
aI39
aI52
aI54
aI56
aI58
aI67
aI75
aI76
aI104
aI110
aI111
aI112
aI114
aI120
aI121
aI140
aI141
aI144
aI163
aI168
aI174
aI182
aI200
aI214
aI228
aI229
aI236
aI239
aI240
aI254
aI257
aI263
aI266
aI279
aI288
aI291
aI295
aI297
aI304
aI312
aI326
aI327
aI333
aI340
aI345
aI346
aI356
aI357
aI368
aI395
aI399
aa(lp36
I0
aI7
aI10
aI13
aI18
aI23
aI24
aI29
aI30
aI40
aI45
aI57
aI73
aI91
aI96
aI98
aI107
aI116
aI119
aI130
aI131
aI145
aI149
aI153
aI158
aI192
aI198
aI200
aI204
aI209
aI233
aI243
aI245
aI267
aI275
aI300
aI301
aI302
aI311
aI312
aI318
aI339
aI346
aI348
aI350
aI355
aI357
aI362
aI371
aI381
aI396
aa(lp37
I5
aI9
aI26
aI27
aI29
aI35
aI48
aI49
aI51
aI56
aI57
aI61
aI68
aI83
aI86
aI94
aI97
aI111
aI119
aI127
aI129
aI131
aI135
aI141
aI143
aI167
aI168
aI169
aI171
aI175
aI177
aI183
aI186
aI198
aI211
aI218
aI240
aI242
aI243
aI259
aI276
aI277
aI283
aI298
aI302
aI303
aI305
aI311
aI322
aI324
aI340
aI341
aI360
aI367
aI379
aI384
aI393
aI395
aI398
aa(lp38
I2
aI4
aI13
aI14
aI22
aI28
aI31
aI34
aI46
aI48
aI65
aI75
aI76
aI91
aI103
aI107
aI118
aI125
aI127
aI128
aI132
aI165
aI184
aI190
aI192
aI198
aI211
aI215
aI225
aI228
aI230
aI231
aI235
aI242
aI244
aI245
aI251
aI256
aI264
aI277
aI291
aI297
aI305
aI324
aI331
aI334
aI336
aI342
aI343
aI344
aI345
aI349
aI355
aI358
aI360
aI366
aI373
aI376
aI380
aI384
aa(lp39
I7
aI8
aI9
aI11
aI15
aI16
aI27
aI30
aI32
aI46
aI60
aI69
aI71
aI84
aI88
aI97
aI106
aI126
aI130
aI131
aI135
aI145
aI149
aI156
aI162
aI185
aI192
aI197
aI212
aI214
aI218
aI221
aI236
aI237
aI239
aI240
aI297
aI302
aI303
aI308
aI318
aI326
aI328
aI329
aI341
aI355
aI356
aI364
aI368
aI375
aI385
aa(lp40
I0
aI1
aI2
aI17
aI18
aI19
aI24
aI49
aI64
aI71
aI97
aI98
aI104
aI112
aI121
aI124
aI134
aI143
aI144
aI157
aI180
aI205
aI207
aI209
aI231
aI241
aI244
aI250
aI260
aI277
aI279
aI287
aI292
aI296
aI300
aI301
aI309
aI314
aI318
aI323
aI333
aI338
aI344
aI350
aI359
aI360
aI374
aI383
aI388
aI389
aa(lp41
I6
aI8
aI31
aI34
aI44
aI55
aI61
aI68
aI79
aI86
aI92
aI94
aI99
aI101
aI105
aI112
aI118
aI124
aI159
aI161
aI171
aI176
aI183
aI187
aI189
aI192
aI203
aI208
aI212
aI226
aI235
aI246
aI249
aI252
aI258
aI268
aI283
aI296
aI297
aI304
aI305
aI317
aI320
aI329
aI352
aI353
aI365
aI366
aI380
aa(lp42
I1
aI5
aI9
aI11
aI12
aI16
aI21
aI22
aI31
aI36
aI57
aI60
aI63
aI66
aI75
aI79
aI86
aI98
aI102
aI104
aI105
aI113
aI117
aI120
aI127
aI128
aI133
aI134
aI145
aI149
aI151
aI160
aI161
aI162
aI173
aI184
aI187
aI208
aI212
aI216
aI219
aI232
aI235
aI248
aI260
aI263
aI269
aI279
aI287
aI293
aI299
aI303
aI306
aI311
aI323
aI329
aI339
aI362
aI365
aI366
aI372
aI378
aI384
aI399
aa(lp43
I1
aI2
aI3
aI20
aI22
aI30
aI37
aI39
aI53
aI55
aI61
aI76
aI81
aI83
aI90
aI92
aI94
aI95
aI99
aI104
aI108
aI110
aI111
aI115
aI118
aI125
aI133
aI134
aI150
aI176
aI180
aI183
aI184
aI186
aI187
aI194
aI200
aI204
aI213
aI219
aI230
aI234
aI239
aI245
aI261
aI262
aI265
aI274
aI282
aI288
aI293
aI317
aI322
aI328
aI339
aI340
aI343
aI345
aI367
aI368
aI369
aI372
aI381
aI382
aI392
aa(lp44
I8
aI14
aI31
aI33
aI36
aI40
aI45
aI48
aI56
aI59
aI70
aI84
aI86
aI103
aI110
aI116
aI120
aI126
aI133
aI138
aI139
aI147
aI151
aI152
aI155
aI165
aI178
aI204
aI211
aI215
aI222
aI230
aI238
aI239
aI247
aI265
aI277
aI278
aI288
aI297
aI302
aI306
aI312
aI329
aI335
aI336
aI338
aI342
aI349
aI355
aI369
aI370
aI387
aa(lp45
I14
aI17
aI21
aI30
aI32
aI34
aI37
aI42
aI51
aI58
aI64
aI81
aI85
aI86
aI87
aI89
aI91
aI97
aI102
aI103
aI109
aI113
aI121
aI127
aI133
aI145
aI148
aI151
aI155
aI158
aI168
aI171
aI182
aI185
aI193
aI202
aI205
aI207
aI219
aI233
aI241
aI278
aI285
aI287
aI295
aI296
aI299
aI300
aI304
aI306
aI308
aI312
aI313
aI315
aI319
aI332
aI338
aI339
aI346
aI350
aI360
aI365
aI367
aI380
aI393
aI397
aa(lp46
I6
aI22
aI23
aI33
aI34
aI35
aI41
aI49
aI58
aI59
aI61
aI65
aI72
aI77
aI82
aI94
aI96
aI97
aI101
aI104
aI108
aI110
aI113
aI114
aI133
aI139
aI148
aI149
aI150
aI177
aI181
aI183
aI185
aI190
aI195
aI220
aI229
aI239
aI243
aI255
aI271
aI277
aI282
aI285
aI291
aI305
aI327
aI329
aI332
aI333
aI340
aI345
aI348
aI350
aI366
aI368
aI371
aI374
aI382
aI383
aI386
aI390
aa(lp47
I7
aI10
aI13
aI23
aI26
aI33
aI37
aI42
aI47
aI64
aI70
aI83
aI93
aI105
aI110
aI119
aI137
aI141
aI152
aI156
aI174
aI178
aI193
aI195
aI200
aI223
aI229
aI243
aI246
aI252
aI253
aI254
aI255
aI264
aI276
aI279
aI287
aI290
aI292
aI293
aI304
aI313
aI319
aI326
aI336
aI338
aI352
aI353
aI360
aI380
aI381
aI383
aI384
aI397
aI398
aa(lp48
I14
aI17
aI27
aI28
aI32
aI35
aI36
aI47
aI49
aI50
aI61
aI70
aI74
aI85
aI95
aI102
aI103
aI110
aI119
aI126
aI131
aI139
aI145
aI146
aI156
aI164
aI171
aI172
aI175
aI181
aI183
aI191
aI193
aI194
aI198
aI210
aI223
aI234
aI241
aI246
aI248
aI255
aI261
aI262
aI265
aI272
aI275
aI286
aI295
aI298
aI302
aI308
aI311
aI316
aI327
aI331
aI341
aI348
aI350
aI365
aI368
aI369
aI373
aI389
aI391
aI399
aa(lp49
I11
aI26
aI31
aI49
aI50
aI52
aI59
aI61
aI63
aI73
aI79
aI108
aI109
aI112
aI141
aI153
aI163
aI164
aI168
aI172
aI173
aI176
aI193
aI194
aI197
aI201
aI205
aI206
aI212
aI216
aI217
aI226
aI233
aI238
aI249
aI257
aI258
aI265
aI279
aI285
aI289
aI291
aI304
aI305
aI313
aI322
aI336
aI337
aI342
aI368
aI392
aI398
aa(lp50
I3
aI21
aI23
aI39
aI46
aI48
aI50
aI61
aI66
aI82
aI83
aI85
aI91
aI96
aI103
aI106
aI110
aI119
aI132
aI136
aI142
aI144
aI163
aI165
aI167
aI169
aI176
aI184
aI185
aI187
aI193
aI197
aI201
aI207
aI212
aI213
aI223
aI234
aI244
aI266
aI278
aI282
aI287
aI292
aI294
aI304
aI305
aI311
aI321
aI322
aI340
aI345
aI353
aI358
aI359
aI360
aI364
aI378
aI381
aI386
aI389
aI393
aa(lp51
I5
aI7
aI18
aI25
aI29
aI40
aI41
aI48
aI51
aI52
aI54
aI55
aI65
aI70
aI71
aI74
aI78
aI83
aI99
aI104
aI106
aI107
aI108
aI109
aI115
aI116
aI121
aI122
aI123
aI134
aI135
aI144
aI152
aI170
aI172
aI178
aI184
aI187
aI190
aI194
aI197
aI198
aI213
aI214
aI231
aI236
aI243
aI251
aI259
aI265
aI267
aI269
aI272
aI277
aI280
aI284
aI293
aI304
aI318
aI324
aI327
aI329
aI332
aI333
aI334
aI364
aI367
aI380
aI387
aI398
aa(lp52
I5
aI6
aI15
aI25
aI30
aI32
aI35
aI40
aI51
aI53
aI54
aI55
aI62
aI63
aI66
aI75
aI86
aI88
aI91
aI97
aI103
aI120
aI121
aI126
aI128
aI129
aI136
aI139
aI140
aI142
aI158
aI161
aI179
aI181
aI189
aI194
aI201
aI203
aI205
aI220
aI222
aI229
aI233
aI234
aI236
aI238
aI239
aI250
aI252
aI258
aI262
aI266
aI267
aI274
aI281
aI283
aI285
aI294
aI302
aI305
aI313
aI316
aI324
aI333
aI335
aI339
aI344
aI350
aI358
aI361
aI362
aI364
aI377
aI388
aI398
aa(lp53
I2
aI5
aI7
aI39
aI41
aI54
aI60
aI63
aI72
aI78
aI79
aI80
aI83
aI86
aI87
aI97
aI99
aI101
aI105
aI108
aI111
aI122
aI131
aI134
aI139
aI142
aI151
aI158
aI166
aI177
aI178
aI180
aI185
aI188
aI198
aI204
aI217
aI224
aI231
aI234
aI239
aI240
aI241
aI245
aI251
aI254
aI268
aI269
aI289
aI290
aI293
aI298
aI305
aI311
aI317
aI336
aI349
aI356
aI361
aI377
aI385
aI393
aa(lp54
I25
aI34
aI37
aI38
aI62
aI65
aI69
aI77
aI93
aI97
aI101
aI107
aI126
aI127
aI142
aI146
aI152
aI153
aI154
aI162
aI163
aI166
aI194
aI203
aI208
aI218
aI242
aI256
aI257
aI259
aI261
aI267
aI268
aI289
aI295
aI306
aI313
aI316
aI317
aI323
aI328
aI350
aI356
aI364
aI368
aI379
aI381
aI395
aI399
aa(lp55
I31
aI34
aI41
aI53
aI54
aI61
aI80
aI85
aI93
aI107
aI110
aI131
aI135
aI142
aI143
aI149
aI153
aI161
aI168
aI170
aI171
aI174
aI179
aI184
aI185
aI189
aI209
aI213
aI216
aI222
aI227
aI229
aI231
aI243
aI244
aI245
aI251
aI279
aI280
aI286
aI298
aI299
aI303
aI306
aI307
aI314
aI315
aI324
aI325
aI330
aI334
aI335
aI337
aI354
aI355
aI365
aI389
aI395
aa(lp56
I7
aI33
aI50
aI53
aI54
aI56
aI58
aI59
aI61
aI67
aI71
aI104
aI108
aI112
aI117
aI118
aI120
aI129
aI132
aI134
aI136
aI139
aI141
aI147
aI150
aI154
aI160
aI161
aI176
aI177
aI179
aI181
aI186
aI190
aI194
aI206
aI216
aI219
aI228
aI231
aI232
aI238
aI250
aI251
aI261
aI265
aI268
aI315
aI317
aI323
aI326
aI331
aI334
aI347
aI362
aI367
aI371
aI374
aI375
aI380
aI382
aI385
aI388
aa(lp57
I2
aI5
aI10
aI12
aI17
aI27
aI36
aI38
aI53
aI58
aI66
aI81
aI88
aI92
aI94
aI102
aI104
aI112
aI114
aI117
aI134
aI137
aI143
aI150
aI178
aI188
aI189
aI197
aI216
aI217
aI228
aI234
aI245
aI249
aI252
aI256
aI259
aI268
aI275
aI277
aI288
aI289
aI297
aI307
aI315
aI320
aI332
aI335
aI337
aI342
aI348
aI351
aI357
aI367
aI369
aI370
aI374
aI375
aI377
aI397
aI398
aI399
aa(lp58
I7
aI9
aI10
aI12
aI14
aI19
aI21
aI30
aI36
aI42
aI43
aI46
aI55
aI63
aI83
aI86
aI93
aI96
aI104
aI107
aI116
aI118
aI122
aI126
aI144
aI153
aI155
aI172
aI183
aI185
aI189
aI213
aI224
aI245
aI246
aI258
aI262
aI268
aI272
aI278
aI280
aI282
aI312
aI315
aI327
aI329
aI336
aI348
aI364
aI388
aI396
aa(lp59
I1
aI4
aI6
aI7
aI12
aI20
aI28
aI30
aI33
aI36
aI39
aI50
aI57
aI67
aI75
aI86
aI90
aI98
aI102
aI103
aI109
aI115
aI116
aI134
aI137
aI139
aI141
aI143
aI159
aI178
aI180
aI193
aI216
aI217
aI231
aI237
aI254
aI257
aI262
aI272
aI276
aI283
aI287
aI289
aI300
aI302
aI304
aI313
aI319
aI322
aI329
aI336
aI340
aI348
aI355
aI373
aI378
aI379
aI381
aI382
aI383
aI386
aI388
aa(lp60
I6
aI11
aI15
aI23
aI29
aI48
aI50
aI74
aI79
aI87
aI88
aI89
aI107
aI118
aI126
aI144
aI147
aI152
aI160
aI169
aI170
aI173
aI175
aI183
aI190
aI192
aI196
aI198
aI204
aI213
aI226
aI230
aI232
aI268
aI278
aI285
aI290
aI293
aI294
aI300
aI301
aI304
aI306
aI309
aI310
aI323
aI325
aI360
aI389
aI391
aa(lp61
I0
aI2
aI4
aI11
aI17
aI21
aI23
aI43
aI44
aI54
aI66
aI72
aI88
aI90
aI92
aI108
aI114
aI116
aI122
aI134
aI157
aI172
aI174
aI184
aI189
aI193
aI194
aI199
aI203
aI204
aI211
aI212
aI218
aI225
aI245
aI249
aI261
aI277
aI292
aI310
aI317
aI318
aI325
aI331
aI332
aI342
aI347
aI348
aI351
aI353
aI368
aI378
aI383
aI391
aI394
aI397
aI399
aa(lp62
I14
aI27
aI30
aI39
aI41
aI45
aI65
aI73
aI74
aI76
aI113
aI121
aI123
aI129
aI132
aI133
aI140
aI141
aI149
aI150
aI155
aI172
aI173
aI200
aI201
aI214
aI220
aI224
aI237
aI239
aI241
aI248
aI252
aI254
aI257
aI261
aI263
aI273
aI275
aI280
aI286
aI290
aI291
aI292
aI298
aI302
aI303
aI305
aI310
aI316
aI321
aI336
aI338
aI346
aI357
aI367
aI372
aI374
aa(lp63
I10
aI24
aI34
aI36
aI44
aI53
aI58
aI59
aI61
aI66
aI72
aI100
aI101
aI115
aI120
aI124
aI132
aI133
aI135
aI141
aI173
aI186
aI196
aI198
aI202
aI204
aI205
aI215
aI228
aI234
aI236
aI245
aI250
aI254
aI265
aI266
aI268
aI280
aI293
aI297
aI306
aI315
aI317
aI320
aI323
aI325
aI332
aI338
aI347
aI349
aI351
aI353
aI354
aI355
aI373
aI389
aa(lp64
I13
aI23
aI34
aI37
aI40
aI46
aI47
aI51
aI58
aI67
aI72
aI75
aI79
aI153
aI161
aI171
aI179
aI184
aI195
aI199
aI203
aI213
aI223
aI231
aI239
aI254
aI270
aI287
aI291
aI292
aI295
aI306
aI310
aI313
aI317
aI319
aI321
aI327
aI337
aI340
aI344
aI359
aI366
aI369
aI390
aa(lp65
I1
aI7
aI30
aI34
aI35
aI45
aI50
aI58
aI61
aI63
aI83
aI99
aI117
aI118
aI120
aI126
aI133
aI139
aI146
aI148
aI154
aI155
aI163
aI176
aI179
aI185
aI212
aI213
aI214
aI252
aI253
aI259
aI267
aI272
aI275
aI285
aI286
aI300
aI303
aI307
aI309
aI322
aI332
aI333
aI337
aI338
aI346
aI347
aI365
aI373
aI375
aI377
aI384
aI386
aI392
aa(lp66
I0
aI1
aI3
aI4
aI14
aI16
aI25
aI28
aI34
aI36
aI42
aI45
aI62
aI65
aI67
aI71
aI78
aI80
aI81
aI83
aI90
aI91
aI95
aI96
aI101
aI103
aI105
aI117
aI132
aI138
aI151
aI167
aI169
aI170
aI171
aI178
aI179
aI181
aI185
aI195
aI211
aI213
aI221
aI222
aI229
aI230
aI231
aI244
aI247
aI256
aI259
aI273
aI280
aI286
aI290
aI298
aI305
aI310
aI319
aI321
aI323
aI335
aI359
aI361
aI364
aI374
aI378
aI396
aa(lp67
I38
aI40
aI53
aI57
aI58
aI60
aI63
aI65
aI70
aI79
aI82
aI90
aI110
aI122
aI140
aI162
aI170
aI180
aI182
aI183
aI187
aI189
aI196
aI199
aI202
aI206
aI214
aI215
aI216
aI222
aI224
aI232
aI233
aI239
aI255
aI280
aI294
aI300
aI303
aI306
aI313
aI318
aI329
aI331
aI334
aI339
aI352
aI359
aI365
aI376
aI386
aa(lp68
I8
aI14
aI16
aI20
aI26
aI39
aI40
aI41
aI47
aI48
aI50
aI58
aI60
aI67
aI78
aI80
aI95
aI99
aI109
aI110
aI117
aI129
aI133
aI141
aI144
aI151
aI163
aI175
aI182
aI187
aI200
aI202
aI207
aI208
aI217
aI226
aI235
aI240
aI241
aI255
aI258
aI298
aI323
aI334
aI338
aI339
aI344
aI357
aI358
aI368
aI377
aI380
aI382
aI389
aI395
aa(lp69
I7
aI14
aI16
aI19
aI23
aI26
aI30
aI32
aI38
aI42
aI101
aI104
aI106
aI117
aI120
aI127
aI128
aI133
aI141
aI151
aI152
aI162
aI167
aI174
aI175
aI181
aI182
aI184
aI198
aI200
aI210
aI214
aI217
aI224
aI228
aI229
aI245
aI247
aI251
aI254
aI259
aI267
aI283
aI290
aI292
aI293
aI295
aI299
aI300
aI305
aI309
aI312
aI320
aI321
aI327
aI329
aI330
aI332
aI343
aI344
aI351
aI358
aI363
aI365
aI369
aI370
aI371
aI377
aI386
aI389
aa(lp70
I1
aI2
aI10
aI17
aI20
aI28
aI30
aI31
aI50
aI57
aI64
aI65
aI70
aI77
aI90
aI93
aI96
aI107
aI108
aI110
aI117
aI122
aI140
aI141
aI144
aI145
aI146
aI155
aI158
aI160
aI161
aI170
aI172
aI181
aI183
aI186
aI191
aI193
aI195
aI198
aI205
aI213
aI214
aI217
aI218
aI226
aI236
aI237
aI239
aI247
aI254
aI265
aI295
aI296
aI302
aI305
aI313
aI321
aI331
aI333
aI343
aI345
aI355
aI356
aI358
aI363
aI369
aI372
aI373
aI374
aI391
aa(lp71
I12
aI25
aI33
aI36
aI39
aI43
aI45
aI47
aI49
aI56
aI70
aI72
aI82
aI93
aI100
aI106
aI109
aI123
aI133
aI147
aI154
aI159
aI163
aI166
aI168
aI172
aI174
aI181
aI203
aI226
aI230
aI234
aI241
aI243
aI248
aI258
aI272
aI274
aI284
aI289
aI312
aI314
aI315
aI319
aI342
aI356
aI364
aI370
aI380
aI383
aI387
aI396
aI398
aa(lp72
I2
aI9
aI19
aI20
aI21
aI31
aI36
aI41
aI42
aI48
aI50
aI60
aI69
aI95
aI108
aI128
aI176
aI187
aI193
aI195
aI201
aI204
aI212
aI215
aI221
aI224
aI225
aI229
aI236
aI250
aI255
aI263
aI272
aI273
aI284
aI285
aI299
aI319
aI324
aI330
aI331
aI340
aI345
aI346
aI349
aI350
aI359
aI362
aI378
aI380
aI386
aI387
aI390
aI398
aa(lp73
I1
aI17
aI19
aI25
aI28
aI32
aI41
aI47
aI50
aI54
aI58
aI63
aI67
aI68
aI76
aI79
aI82
aI86
aI111
aI116
aI123
aI124
aI138
aI145
aI147
aI149
aI175
aI185
aI189
aI190
aI201
aI204
aI211
aI220
aI226
aI231
aI235
aI244
aI254
aI256
aI265
aI288
aI303
aI304
aI309
aI325
aI332
aI335
aI337
aI343
aI347
aI361
aI362
aI373
aI376
aI386
aI390
aI397
aa(lp74
I20
aI22
aI40
aI65
aI74
aI77
aI100
aI101
aI102
aI106
aI107
aI117
aI124
aI125
aI130
aI132
aI151
aI154
aI157
aI158
aI169
aI180
aI181
aI191
aI194
aI209
aI222
aI233
aI241
aI247
aI249
aI254
aI259
aI261
aI264
aI268
aI271
aI272
aI273
aI281
aI284
aI290
aI301
aI304
aI309
aI324
aI329
aI332
aI343
aI346
aI348
aI354
aI356
aI359
aI360
aI361
aI370
aI375
aI388
aI390
aI397
aa(lp75
I26
aI27
aI38
aI39
aI41
aI54
aI62
aI71
aI90
aI92
aI96
aI99
aI101
aI103
aI105
aI106
aI115
aI117
aI120
aI127
aI130
aI132
aI140
aI142
aI148
aI153
aI161
aI163
aI179
aI180
aI186
aI192
aI194
aI206
aI211
aI217
aI218
aI220
aI221
aI230
aI236
aI242
aI243
aI244
aI257
aI260
aI270
aI273
aI277
aI281
aI299
aI301
aI306
aI308
aI314
aI320
aI321
aI331
aI339
aI348
aI354
aI369
aI372
aI383
aI384
aI386
aI391
aa(lp76
I5
aI11
aI13
aI16
aI18
aI24
aI35
aI41
aI43
aI49
aI53
aI54
aI59
aI77
aI81
aI98
aI101
aI104
aI108
aI128
aI132
aI136
aI147
aI148
aI151
aI152
aI158
aI159
aI176
aI194
aI200
aI211
aI217
aI220
aI224
aI227
aI244
aI251
aI255
aI262
aI264
aI265
aI292
aI294
aI296
aI305
aI313
aI321
aI325
aI328
aI340
aI342
aI351
aI356
aI357
aI359
aI374
aI380
aI390
aI393
aI398
aa(lp77
I3
aI8
aI14
aI23
aI24
aI30
aI35
aI54
aI59
aI61
aI63
aI71
aI74
aI85
aI87
aI101
aI119
aI123
aI131
aI140
aI141
aI145
aI150
aI151
aI160
aI169
aI175
aI183
aI184
aI202
aI206
aI217
aI219
aI223
aI225
aI229
aI231
aI237
aI251
aI252
aI255
aI256
aI266
aI275
aI284
aI301
aI313
aI324
aI325
aI341
aI346
aI350
aI360
aI370
aI385
aI391
aI392
aI398
aa(lp78
I1
aI2
aI12
aI19
aI20
aI36
aI44
aI55
aI58
aI65
aI76
aI78
aI94
aI96
aI102
aI110
aI117
aI125
aI127
aI130
aI135
aI144
aI146
aI147
aI155
aI156
aI161
aI162
aI164
aI172
aI178
aI195
aI201
aI202
aI205
aI216
aI236
aI239
aI244
aI245
aI254
aI267
aI270
aI271
aI276
aI285
aI289
aI293
aI294
aI306
aI309
aI313
aI319
aI322
aI323
aI325
aI328
aI331
aI341
aI342
aI347
aI349
aI351
aI352
aI372
aI377
aI380
aI388
aI392
aI397
aa(lp79
I14
aI18
aI24
aI40
aI49
aI50
aI52
aI53
aI66
aI68
aI69
aI77
aI85
aI86
aI96
aI97
aI115
aI124
aI133
aI147
aI150
aI155
aI157
aI159
aI160
aI170
aI172
aI173
aI183
aI190
aI193
aI210
aI213
aI218
aI220
aI247
aI252
aI260
aI265
aI267
aI274
aI285
aI286
aI293
aI301
aI308
aI333
aI339
aI344
aI349
aI364
aI376
aI378
aa(lp80
I14
aI18
aI46
aI48
aI53
aI70
aI75
aI77
aI87
aI97
aI99
aI111
aI113
aI126
aI128
aI131
aI132
aI134
aI137
aI149
aI165
aI172
aI189
aI193
aI208
aI211
aI224
aI254
aI264
aI270
aI272
aI275
aI286
aI289
aI291
aI293
aI322
aI331
aI334
aI339
aI346
aI356
aI362
aI363
aI364
aI366
aI372
aI384
aI385
aa(lp81
I3
aI7
aI19
aI22
aI24
aI29
aI31
aI39
aI54
aI57
aI64
aI65
aI67
aI80
aI85
aI93
aI102
aI109
aI117
aI118
aI120
aI122
aI129
aI131
aI134
aI140
aI160
aI163
aI169
aI170
aI177
aI196
aI205
aI207
aI209
aI225
aI233
aI236
aI237
aI257
aI262
aI270
aI277
aI279
aI285
aI287
aI301
aI303
aI314
aI315
aI323
aI324
aI338
aI340
aI343
aI346
aI369
aI372
aI379
aI386
aI393
aa(lp82
I4
aI11
aI13
aI31
aI37
aI42
aI49
aI66
aI73
aI81
aI93
aI94
aI102
aI104
aI108
aI120
aI133
aI137
aI144
aI160
aI163
aI166
aI171
aI173
aI178
aI180
aI185
aI205
aI206
aI208
aI209
aI212
aI216
aI223
aI229
aI258
aI268
aI277
aI279
aI282
aI295
aI303
aI308
aI311
aI314
aI317
aI328
aI341
aI343
aI368
aI371
aI374
aI390
aa(lp83
I4
aI16
aI17
aI22
aI37
aI50
aI55
aI57
aI58
aI60
aI64
aI71
aI80
aI89
aI90
aI93
aI101
aI103
aI109
aI121
aI124
aI126
aI145
aI155
aI171
aI188
aI193
aI197
aI203
aI205
aI216
aI223
aI227
aI239
aI251
aI257
aI262
aI263
aI270
aI284
aI286
aI289
aI302
aI314
aI315
aI318
aI338
aI339
aI341
aI378
aI381
aI394
aa(lp84
I4
aI15
aI16
aI18
aI30
aI31
aI39
aI45
aI62
aI85
aI89
aI90
aI98
aI107
aI110
aI114
aI120
aI129
aI133
aI134
aI144
aI153
aI175
aI185
aI187
aI192
aI197
aI206
aI212
aI229
aI241
aI244
aI253
aI255
aI258
aI260
aI274
aI275
aI285
aI292
aI302
aI310
aI321
aI325
aI342
aI349
aI351
aI355
aI359
aI360
aI362
aI399
aa(lp85
I1
aI13
aI25
aI28
aI29
aI33
aI41
aI56
aI70
aI78
aI89
aI90
aI95
aI100
aI103
aI106
aI108
aI119
aI127
aI129
aI133
aI140
aI146
aI151
aI155
aI175
aI179
aI188
aI192
aI202
aI211
aI212
aI232
aI233
aI259
aI261
aI279
aI286
aI290
aI293
aI294
aI295
aI299
aI302
aI310
aI318
aI333
aI356
aI359
aI362
aI367
aI382
aI383
aI389
aI390
aI392
aI393
aI394
aa(lp86
I1
aI2
aI5
aI30
aI33
aI42
aI43
aI60
aI61
aI71
aI80
aI82
aI89
aI97
aI109
aI110
aI120
aI135
aI141
aI143
aI144
aI148
aI151
aI156
aI158
aI174
aI176
aI177
aI180
aI202
aI204
aI211
aI216
aI219
aI220
aI246
aI261
aI262
aI275
aI277
aI280
aI295
aI296
aI311
aI315
aI319
aI322
aI325
aI330
aI346
aI349
aI351
aI354
aI365
aI367
aI368
aI369
aI384
aI385
aI396
aa(lp87
I8
aI9
aI10
aI18
aI27
aI36
aI38
aI42
aI56
aI57
aI60
aI63
aI69
aI74
aI78
aI94
aI100
aI101
aI111
aI113
aI142
aI151
aI152
aI153
aI155
aI157
aI168
aI169
aI172
aI179
aI181
aI189
aI195
aI212
aI214
aI231
aI244
aI268
aI271
aI281
aI284
aI297
aI298
aI312
aI313
aI323
aI326
aI339
aI343
aI354
aI359
aI360
aI365
aI369
aI371
aI374
aI375
aI376
aI391
aI398
aa(lp88
I9
aI18
aI21
aI24
aI30
aI34
aI41
aI52
aI58
aI60
aI63
aI64
aI69
aI73
aI74
aI82
aI86
aI95
aI103
aI114
aI115
aI143
aI144
aI150
aI153
aI154
aI155
aI159
aI160
aI168
aI171
aI172
aI173
aI183
aI193
aI218
aI228
aI230
aI239
aI244
aI249
aI253
aI256
aI281
aI282
aI286
aI291
aI300
aI311
aI315
aI317
aI322
aI354
aI371
aI373
aI375
aI376
aI382
aI387
aa(lp89
I1
aI2
aI9
aI12
aI30
aI31
aI53
aI61
aI65
aI68
aI78
aI85
aI91
aI93
aI128
aI135
aI137
aI139
aI141
aI149
aI153
aI160
aI161
aI170
aI177
aI178
aI195
aI198
aI201
aI210
aI212
aI215
aI217
aI252
aI258
aI267
aI273
aI281
aI286
aI296
aI299
aI305
aI314
aI324
aI329
aI333
aI335
aI339
aI369
aI372
aI374
aI377
aI390
aI391
aI392
aa(lp90
I7
aI72
aI73
aI84
aI100
aI103
aI119
aI135
aI139
aI165
aI177
aI191
aI194
aI196
aI211
aI213
aI222
aI223
aI226
aI234
aI235
aI240
aI243
aI258
aI266
aI296
aI297
aI302
aI310
aI311
aI318
aI320
aI327
aI334
aI336
aI351
aI352
aI359
aI360
aI363
aI367
aI371
aI389
aI390
aa(lp91
I9
aI12
aI16
aI18
aI20
aI21
aI22
aI32
aI36
aI43
aI45
aI64
aI72
aI76
aI99
aI101
aI102
aI107
aI112
aI115
aI137
aI144
aI174
aI175
aI195
aI202
aI204
aI205
aI215
aI216
aI231
aI241
aI250
aI263
aI270
aI281
aI284
aI291
aI292
aI295
aI302
aI304
aI308
aI320
aI325
aI329
aI340
aI342
aI362
aI373
aI383
aI385
aI387
aI388
aa(lp92
I2
aI5
aI6
aI9
aI10
aI21
aI25
aI26
aI29
aI35
aI62
aI81
aI102
aI120
aI125
aI126
aI128
aI129
aI148
aI151
aI157
aI164
aI172
aI175
aI176
aI180
aI190
aI192
aI201
aI204
aI206
aI207
aI210
aI218
aI221
aI223
aI229
aI235
aI241
aI243
aI246
aI247
aI261
aI268
aI269
aI281
aI288
aI293
aI297
aI306
aI316
aI319
aI329
aI331
aI334
aI337
aI346
aI364
aI373
aI376
aI382
aI383
aI388
aI389
aI391
aa(lp93
I29
aI37
aI40
aI45
aI55
aI56
aI64
aI71
aI84
aI85
aI101
aI112
aI123
aI125
aI127
aI134
aI138
aI150
aI158
aI169
aI171
aI172
aI173
aI174
aI177
aI182
aI183
aI191
aI199
aI216
aI217
aI223
aI244
aI252
aI269
aI277
aI279
aI280
aI287
aI321
aI326
aI330
aI333
aI335
aI339
aI344
aI351
aI357
aI382
aI393
aa(lp94
I3
aI10
aI29
aI38
aI43
aI44
aI49
aI51
aI53
aI56
aI57
aI68
aI73
aI76
aI79
aI81
aI82
aI88
aI111
aI112
aI113
aI118
aI126
aI129
aI138
aI140
aI150
aI153
aI170
aI179
aI184
aI192
aI200
aI208
aI220
aI221
aI230
aI232
aI239
aI240
aI259
aI262
aI272
aI278
aI287
aI298
aI309
aI315
aI320
aI334
aI336
aI338
aI349
aI352
aI353
aI360
aI365
aI378
aI380
aI383
aI386
aa(lp95
I3
aI7
aI20
aI25
aI27
aI28
aI30
aI31
aI33
aI35
aI39
aI45
aI50
aI55
aI56
aI60
aI75
aI76
aI82
aI85
aI90
aI91
aI93
aI106
aI107
aI112
aI118
aI127
aI130
aI138
aI143
aI144
aI145
aI147
aI149
aI161
aI178
aI185
aI197
aI198
aI201
aI202
aI216
aI229
aI232
aI234
aI239
aI245
aI251
aI252
aI253
aI257
aI263
aI271
aI281
aI290
aI310
aI312
aI331
aI342
aI352
aI361
aI379
aI385
aa(lp96
I9
aI32
aI36
aI40
aI50
aI51
aI59
aI60
aI63
aI65
aI70
aI72
aI91
aI92
aI94
aI99
aI101
aI115
aI121
aI123
aI129
aI141
aI146
aI154
aI161
aI173
aI174
aI184
aI185
aI195
aI197
aI209
aI211
aI212
aI222
aI224
aI228
aI244
aI253
aI256
aI267
aI269
aI272
aI273
aI275
aI276
aI277
aI278
aI282
aI287
aI294
aI296
aI298
aI300
aI304
aI306
aI307
aI309
aI310
aI316
aI326
aI337
aI339
aI341
aI345
aI346
aI352
aI360
aI372
aI379
aI382
aI384
aI390
aa(lp97
I2
aI9
aI15
aI22
aI27
aI31
aI32
aI33
aI43
aI50
aI72
aI94
aI95
aI98
aI111
aI112
aI124
aI130
aI142
aI148
aI162
aI167
aI171
aI177
aI187
aI194
aI207
aI213
aI218
aI230
aI250
aI252
aI275
aI289
aI295
aI296
aI297
aI299
aI316
aI318
aI345
aI349
aI357
aI359
aI361
aI370
aI385
aa(lp98
I4
aI24
aI29
aI53
aI61
aI72
aI75
aI82
aI83
aI87
aI89
aI103
aI109
aI121
aI123
aI134
aI138
aI148
aI153
aI156
aI184
aI187
aI188
aI193
aI204
aI205
aI221
aI226
aI229
aI236
aI248
aI267
aI271
aI279
aI282
aI283
aI310
aI318
aI323
aI326
aI332
aI333
aI338
aI340
aI348
aI351
aI359
aI361
aI372
aI373
aI384
aI385
aI397
aa(lp99
I1
aI8
aI9
aI15
aI23
aI32
aI33
aI36
aI41
aI49
aI50
aI58
aI70
aI76
aI88
aI91
aI97
aI114
aI138
aI139
aI140
aI141
aI142
aI155
aI171
aI174
aI175
aI189
aI191
aI192
aI193
aI209
aI221
aI223
aI225
aI233
aI234
aI244
aI252
aI260
aI264
aI268
aI272
aI278
aI281
aI284
aI295
aI300
aI302
aI306
aI312
aI323
aI327
aI343
aI346
aI348
aI351
aI354
aI361
aI365
aI370
aI379
aI384
aI387
aI390
aI397
aa(lp100
I7
aI8
aI10
aI11
aI16
aI17
aI29
aI34
aI41
aI45
aI60
aI71
aI79
aI82
aI104
aI108
aI115
aI125
aI132
aI136
aI140
aI141
aI143
aI151
aI160
aI171
aI181
aI188
aI205
aI210
aI216
aI221
aI223
aI224
aI225
aI228
aI244
aI262
aI265
aI280
aI283
aI291
aI295
aI299
aI301
aI307
aI310
aI316
aI321
aI323
aI325
aI330
aI334
aI352
aI354
aI359
aI360
aI369
aI372
aI374
aI378
aI380
aI384
aI395
aI399
aatp101
bsS'format'
p102
S'Spa'
p103
sS'dtype'
p104
g14
(S'f8'
p105
I0
I1
tp106
Rp107
(I3
S'<'
p108
NNNI-1
I-1
I0
tp109
bsS'_shape'
p110
(I80
I400
tp111
sS'maxprint'
p112
I50
sS'data'
p113
g7
(g8
(I0
tp114
g10
tp115
Rp116
(I1
(I80
tp117
g17
I00
(lp118
(lp119
F-0.001
aF-0.001
aF-0.001
aF-0.001
aF-0.001
aF-0.001
aF-0.001
aF-0.001
aF-0.001
aF-0.001
aF-0.001
aF-0.001
aF-0.001
aF-0.001
aF-0.001
aF-0.001
aF-0.001
aF-0.001
aF-0.001
aF-0.001
aF-0.001
aF-0.001
aF-0.001
aF-0.001
aF-0.001
aF-0.001
aF-0.001
aF-0.001
aF-0.001
aF-0.001
aF-0.001
aF-0.001
aF-0.001
aF-0.001
aF-0.001
aF-0.001
aF-0.001
aF-0.001
aF-0.001
aF-0.001
aF-0.001
aF-0.001
aF-0.001
aF-0.001
aF-0.001
aF-0.001
aF-0.001
aF-0.001
aF-0.001
aF-0.001
aF-0.001
aF-0.001
aF-0.001
aF-0.001
aF-0.001
aF-0.001
aF-0.001
aF-0.001
aF-0.001
aa(lp120
F-0.001
aF-0.001
aF-0.001
aF-0.001
aF-0.001
aF-0.001
aF-0.001
aF-0.001
aF-0.001
aF-0.001
aF-0.001
aF-0.001
aF-0.001
aF-0.001
aF-0.001
aF-0.001
aF-0.001
aF-0.001
aF-0.001
aF-0.001
aF-0.001
aF-0.001
aF-0.001
aF-0.001
aF-0.001
aF-0.001
aF-0.001
aF-0.001
aF-0.001
aF-0.001
aF-0.001
aF-0.001
aF-0.001
aF-0.001
aF-0.001
aF-0.001
aF-0.001
aF-0.001
aF-0.001
aF-0.001
aF-0.001
aF-0.001
aF-0.001
aF-0.001
aF-0.001
aF-0.001
aF-0.001
aF-0.001
aF-0.001
aF-0.001
aF-0.001
aF-0.001
aF-0.001
aF-0.001
aF-0.001
aF-0.001
aF-0.001
aF-0.001
aF-0.001
aF-0.001
aF-0.001
aF-0.001
aF-0.001
aF-0.001
aF-0.001
aF-0.001
aa(lp121
F-0.001
aF-0.001
aF-0.001
aF-0.001
aF-0.001
aF-0.001
aF-0.001
aF-0.001
aF-0.001
aF-0.001
aF-0.001
aF-0.001
aF-0.001
aF-0.001
aF-0.001
aF-0.001
aF-0.001
aF-0.001
aF-0.001
aF-0.001
aF-0.001
aF-0.001
aF-0.001
aF-0.001
aF-0.001
aF-0.001
aF-0.001
aF-0.001
aF-0.001
aF-0.001
aF-0.001
aF-0.001
aF-0.001
aF-0.001
aF-0.001
aF-0.001
aF-0.001
aF-0.001
aF-0.001
aF-0.001
aF-0.001
aF-0.001
aF-0.001
aF-0.001
aF-0.001
aF-0.001
aF-0.001
aF-0.001
aF-0.001
aF-0.001
aF-0.001
aF-0.001
aF-0.001
aF-0.001
aF-0.001
aF-0.001
aF-0.001
aF-0.001
aF-0.001
aF-0.001
aF-0.001
aF-0.001
aF-0.001
aF-0.001
aF-0.001
aF-0.001
aF-0.001
aF-0.001
aF-0.001
aF-0.001
aF-0.001
aF-0.001
aF-0.001
aa(lp122
F-0.001
aF-0.001
aF-0.001
aF-0.001
aF-0.001
aF-0.001
aF-0.001
aF-0.001
aF-0.001
aF-0.001
aF-0.001
aF-0.001
aF-0.001
aF-0.001
aF-0.001
aF-0.001
aF-0.001
aF-0.001
aF-0.001
aF-0.001
aF-0.001
aF-0.001
aF-0.001
aF-0.001
aF-0.001
aF-0.001
aF-0.001
aF-0.001
aF-0.001
aF-0.001
aF-0.001
aF-0.001
aF-0.001
aF-0.001
aF-0.001
aF-0.001
aF-0.001
aF-0.001
aF-0.001
aF-0.001
aF-0.001
aF-0.001
aF-0.001
aF-0.001
aF-0.001
aF-0.001
aF-0.001
aF-0.001
aF-0.001
aF-0.001
aF-0.001
aF-0.001
aF-0.001
aF-0.001
aF-0.001
aF-0.001
aF-0.001
aF-0.001
aF-0.001
aF-0.001
aF-0.001
aF-0.001
aF-0.001
aF-0.001
aF-0.001
aF-0.001
aF-0.001
aF-0.001
aF-0.001
aF-0.001
aF-0.001
aF-0.001
aF-0.001
aF-0.001
aF-0.001
aF-0.001
aa(lp123
F-0.001
aF-0.001
aF-0.001
aF-0.001
aF-0.001
aF-0.001
aF-0.001
aF-0.001
aF-0.001
aF-0.001
aF-0.001
aF-0.001
aF-0.001
aF-0.001
aF-0.001
aF-0.001
aF-0.001
aF-0.001
aF-0.001
aF-0.001
aF-0.001
aF-0.001
aF-0.001
aF-0.001
aF-0.001
aF-0.001
aF-0.001
aF-0.001
aF-0.001
aF-0.001
aF-0.001
aF-0.001
aF-0.001
aF-0.001
aF-0.001
aF-0.001
aF-0.001
aF-0.001
aF-0.001
aF-0.001
aF-0.001
aF-0.001
aF-0.001
aF-0.001
aF-0.001
aF-0.001
aF-0.001
aF-0.001
aF-0.001
aF-0.001
aF-0.001
aF-0.001
aF-0.001
aF-0.001
aF-0.001
aF-0.001
aF-0.001
aF-0.001
aF-0.001
aF-0.001
aF-0.001
aF-0.001
aa(lp124
F-0.001
aF-0.001
aF-0.001
aF-0.001
aF-0.001
aF-0.001
aF-0.001
aF-0.001
aF-0.001
aF-0.001
aF-0.001
aF-0.001
aF-0.001
aF-0.001
aF-0.001
aF-0.001
aF-0.001
aF-0.001
aF-0.001
aF-0.001
aF-0.001
aF-0.001
aF-0.001
aF-0.001
aF-0.001
aF-0.001
aF-0.001
aF-0.001
aF-0.001
aF-0.001
aF-0.001
aF-0.001
aF-0.001
aF-0.001
aF-0.001
aF-0.001
aF-0.001
aF-0.001
aF-0.001
aF-0.001
aF-0.001
aF-0.001
aF-0.001
aF-0.001
aF-0.001
aF-0.001
aF-0.001
aF-0.001
aF-0.001
aF-0.001
aF-0.001
aF-0.001
aF-0.001
aF-0.001
aF-0.001
aF-0.001
aF-0.001
aF-0.001
aF-0.001
aF-0.001
aF-0.001
aa(lp125
F-0.001
aF-0.001
aF-0.001
aF-0.001
aF-0.001
aF-0.001
aF-0.001
aF-0.001
aF-0.001
aF-0.001
aF-0.001
aF-0.001
aF-0.001
aF-0.001
aF-0.001
aF-0.001
aF-0.001
aF-0.001
aF-0.001
aF-0.001
aF-0.001
aF-0.001
aF-0.001
aF-0.001
aF-0.001
aF-0.001
aF-0.001
aF-0.001
aF-0.001
aF-0.001
aF-0.001
aF-0.001
aF-0.001
aF-0.001
aF-0.001
aF-0.001
aF-0.001
aF-0.001
aF-0.001
aF-0.001
aF-0.001
aF-0.001
aF-0.001
aF-0.001
aF-0.001
aF-0.001
aF-0.001
aF-0.001
aF-0.001
aF-0.001
aF-0.001
aF-0.001
aF-0.001
aF-0.001
aF-0.001
aF-0.001
aF-0.001
aF-0.001
aF-0.001
aF-0.001
aF-0.001
aF-0.001
aF-0.001
aF-0.001
aF-0.001
aF-0.001
aa(lp126
F-0.001
aF-0.001
aF-0.001
aF-0.001
aF-0.001
aF-0.001
aF-0.001
aF-0.001
aF-0.001
aF-0.001
aF-0.001
aF-0.001
aF-0.001
aF-0.001
aF-0.001
aF-0.001
aF-0.001
aF-0.001
aF-0.001
aF-0.001
aF-0.001
aF-0.001
aF-0.001
aF-0.001
aF-0.001
aF-0.001
aF-0.001
aF-0.001
aF-0.001
aF-0.001
aF-0.001
aF-0.001
aF-0.001
aF-0.001
aF-0.001
aF-0.001
aF-0.001
aF-0.001
aF-0.001
aF-0.001
aF-0.001
aF-0.001
aF-0.001
aF-0.001
aF-0.001
aF-0.001
aF-0.001
aF-0.001
aF-0.001
aF-0.001
aF-0.001
aF-0.001
aF-0.001
aF-0.001
aF-0.001
aF-0.001
aF-0.001
aF-0.001
aF-0.001
aa(lp127
F-0.001
aF-0.001
aF-0.001
aF-0.001
aF-0.001
aF-0.001
aF-0.001
aF-0.001
aF-0.001
aF-0.001
aF-0.001
aF-0.001
aF-0.001
aF-0.001
aF-0.001
aF-0.001
aF-0.001
aF-0.001
aF-0.001
aF-0.001
aF-0.001
aF-0.001
aF-0.001
aF-0.001
aF-0.001
aF-0.001
aF-0.001
aF-0.001
aF-0.001
aF-0.001
aF-0.001
aF-0.001
aF-0.001
aF-0.001
aF-0.001
aF-0.001
aF-0.001
aF-0.001
aF-0.001
aF-0.001
aF-0.001
aF-0.001
aF-0.001
aF-0.001
aF-0.001
aF-0.001
aF-0.001
aF-0.001
aF-0.001
aF-0.001
aF-0.001
aF-0.001
aF-0.001
aF-0.001
aF-0.001
aF-0.001
aF-0.001
aF-0.001
aF-0.001
aF-0.001
aF-0.001
aF-0.001
aF-0.001
aF-0.001
aF-0.001
aF-0.001
aF-0.001
aF-0.001
aF-0.001
aF-0.001
aF-0.001
aa(lp128
F-0.001
aF-0.001
aF-0.001
aF-0.001
aF-0.001
aF-0.001
aF-0.001
aF-0.001
aF-0.001
aF-0.001
aF-0.001
aF-0.001
aF-0.001
aF-0.001
aF-0.001
aF-0.001
aF-0.001
aF-0.001
aF-0.001
aF-0.001
aF-0.001
aF-0.001
aF-0.001
aF-0.001
aF-0.001
aF-0.001
aF-0.001
aF-0.001
aF-0.001
aF-0.001
aF-0.001
aF-0.001
aF-0.001
aF-0.001
aF-0.001
aF-0.001
aF-0.001
aF-0.001
aF-0.001
aF-0.001
aF-0.001
aF-0.001
aF-0.001
aF-0.001
aF-0.001
aF-0.001
aF-0.001
aF-0.001
aF-0.001
aF-0.001
aF-0.001
aF-0.001
aF-0.001
aa(lp129
F-0.001
aF-0.001
aF-0.001
aF-0.001
aF-0.001
aF-0.001
aF-0.001
aF-0.001
aF-0.001
aF-0.001
aF-0.001
aF-0.001
aF-0.001
aF-0.001
aF-0.001
aF-0.001
aF-0.001
aF-0.001
aF-0.001
aF-0.001
aF-0.001
aF-0.001
aF-0.001
aF-0.001
aF-0.001
aF-0.001
aF-0.001
aF-0.001
aF-0.001
aF-0.001
aF-0.001
aF-0.001
aF-0.001
aF-0.001
aF-0.001
aF-0.001
aF-0.001
aF-0.001
aF-0.001
aF-0.001
aF-0.001
aF-0.001
aF-0.001
aF-0.001
aF-0.001
aF-0.001
aF-0.001
aF-0.001
aF-0.001
aF-0.001
aF-0.001
aF-0.001
aF-0.001
aF-0.001
aF-0.001
aa(lp130
F-0.001
aF-0.001
aF-0.001
aF-0.001
aF-0.001
aF-0.001
aF-0.001
aF-0.001
aF-0.001
aF-0.001
aF-0.001
aF-0.001
aF-0.001
aF-0.001
aF-0.001
aF-0.001
aF-0.001
aF-0.001
aF-0.001
aF-0.001
aF-0.001
aF-0.001
aF-0.001
aF-0.001
aF-0.001
aF-0.001
aF-0.001
aF-0.001
aF-0.001
aF-0.001
aF-0.001
aF-0.001
aF-0.001
aF-0.001
aF-0.001
aF-0.001
aF-0.001
aF-0.001
aF-0.001
aF-0.001
aF-0.001
aF-0.001
aF-0.001
aF-0.001
aF-0.001
aF-0.001
aF-0.001
aF-0.001
aF-0.001
aF-0.001
aF-0.001
aF-0.001
aF-0.001
aF-0.001
aF-0.001
aF-0.001
aF-0.001
aF-0.001
aF-0.001
aF-0.001
aF-0.001
aF-0.001
aF-0.001
aF-0.001
aF-0.001
aa(lp131
F-0.001
aF-0.001
aF-0.001
aF-0.001
aF-0.001
aF-0.001
aF-0.001
aF-0.001
aF-0.001
aF-0.001
aF-0.001
aF-0.001
aF-0.001
aF-0.001
aF-0.001
aF-0.001
aF-0.001
aF-0.001
aF-0.001
aF-0.001
aF-0.001
aF-0.001
aF-0.001
aF-0.001
aF-0.001
aF-0.001
aF-0.001
aF-0.001
aF-0.001
aF-0.001
aF-0.001
aF-0.001
aF-0.001
aF-0.001
aF-0.001
aF-0.001
aF-0.001
aF-0.001
aF-0.001
aF-0.001
aF-0.001
aF-0.001
aF-0.001
aF-0.001
aF-0.001
aF-0.001
aF-0.001
aF-0.001
aF-0.001
aF-0.001
aF-0.001
aF-0.001
aF-0.001
aF-0.001
aF-0.001
aF-0.001
aF-0.001
aF-0.001
aF-0.001
aF-0.001
aF-0.001
aF-0.001
aa(lp132
F-0.001
aF-0.001
aF-0.001
aF-0.001
aF-0.001
aF-0.001
aF-0.001
aF-0.001
aF-0.001
aF-0.001
aF-0.001
aF-0.001
aF-0.001
aF-0.001
aF-0.001
aF-0.001
aF-0.001
aF-0.001
aF-0.001
aF-0.001
aF-0.001
aF-0.001
aF-0.001
aF-0.001
aF-0.001
aF-0.001
aF-0.001
aF-0.001
aF-0.001
aF-0.001
aF-0.001
aF-0.001
aF-0.001
aF-0.001
aF-0.001
aF-0.001
aF-0.001
aF-0.001
aF-0.001
aF-0.001
aF-0.001
aF-0.001
aF-0.001
aF-0.001
aF-0.001
aF-0.001
aF-0.001
aF-0.001
aF-0.001
aF-0.001
aF-0.001
aF-0.001
aa(lp133
F-0.001
aF-0.001
aF-0.001
aF-0.001
aF-0.001
aF-0.001
aF-0.001
aF-0.001
aF-0.001
aF-0.001
aF-0.001
aF-0.001
aF-0.001
aF-0.001
aF-0.001
aF-0.001
aF-0.001
aF-0.001
aF-0.001
aF-0.001
aF-0.001
aF-0.001
aF-0.001
aF-0.001
aF-0.001
aF-0.001
aF-0.001
aF-0.001
aF-0.001
aF-0.001
aF-0.001
aF-0.001
aF-0.001
aF-0.001
aF-0.001
aF-0.001
aF-0.001
aF-0.001
aF-0.001
aF-0.001
aF-0.001
aF-0.001
aF-0.001
aF-0.001
aF-0.001
aF-0.001
aF-0.001
aF-0.001
aF-0.001
aF-0.001
aF-0.001
aF-0.001
aF-0.001
aF-0.001
aF-0.001
aF-0.001
aF-0.001
aa(lp134
F-0.001
aF-0.001
aF-0.001
aF-0.001
aF-0.001
aF-0.001
aF-0.001
aF-0.001
aF-0.001
aF-0.001
aF-0.001
aF-0.001
aF-0.001
aF-0.001
aF-0.001
aF-0.001
aF-0.001
aF-0.001
aF-0.001
aF-0.001
aF-0.001
aF-0.001
aF-0.001
aF-0.001
aF-0.001
aF-0.001
aF-0.001
aF-0.001
aF-0.001
aF-0.001
aF-0.001
aF-0.001
aF-0.001
aF-0.001
aF-0.001
aF-0.001
aF-0.001
aF-0.001
aF-0.001
aF-0.001
aF-0.001
aF-0.001
aF-0.001
aF-0.001
aF-0.001
aF-0.001
aF-0.001
aF-0.001
aF-0.001
aF-0.001
aF-0.001
aa(lp135
F-0.001
aF-0.001
aF-0.001
aF-0.001
aF-0.001
aF-0.001
aF-0.001
aF-0.001
aF-0.001
aF-0.001
aF-0.001
aF-0.001
aF-0.001
aF-0.001
aF-0.001
aF-0.001
aF-0.001
aF-0.001
aF-0.001
aF-0.001
aF-0.001
aF-0.001
aF-0.001
aF-0.001
aF-0.001
aF-0.001
aF-0.001
aF-0.001
aF-0.001
aF-0.001
aF-0.001
aF-0.001
aF-0.001
aF-0.001
aF-0.001
aF-0.001
aF-0.001
aF-0.001
aF-0.001
aF-0.001
aF-0.001
aF-0.001
aF-0.001
aF-0.001
aF-0.001
aF-0.001
aF-0.001
aF-0.001
aF-0.001
aF-0.001
aF-0.001
aF-0.001
aF-0.001
aF-0.001
aF-0.001
aF-0.001
aF-0.001
aF-0.001
aF-0.001
aa(lp136
F-0.001
aF-0.001
aF-0.001
aF-0.001
aF-0.001
aF-0.001
aF-0.001
aF-0.001
aF-0.001
aF-0.001
aF-0.001
aF-0.001
aF-0.001
aF-0.001
aF-0.001
aF-0.001
aF-0.001
aF-0.001
aF-0.001
aF-0.001
aF-0.001
aF-0.001
aF-0.001
aF-0.001
aF-0.001
aF-0.001
aF-0.001
aF-0.001
aF-0.001
aF-0.001
aF-0.001
aF-0.001
aF-0.001
aF-0.001
aF-0.001
aF-0.001
aF-0.001
aF-0.001
aF-0.001
aF-0.001
aF-0.001
aF-0.001
aF-0.001
aF-0.001
aF-0.001
aF-0.001
aF-0.001
aF-0.001
aF-0.001
aF-0.001
aF-0.001
aF-0.001
aF-0.001
aF-0.001
aF-0.001
aF-0.001
aF-0.001
aF-0.001
aF-0.001
aF-0.001
aa(lp137
F-0.001
aF-0.001
aF-0.001
aF-0.001
aF-0.001
aF-0.001
aF-0.001
aF-0.001
aF-0.001
aF-0.001
aF-0.001
aF-0.001
aF-0.001
aF-0.001
aF-0.001
aF-0.001
aF-0.001
aF-0.001
aF-0.001
aF-0.001
aF-0.001
aF-0.001
aF-0.001
aF-0.001
aF-0.001
aF-0.001
aF-0.001
aF-0.001
aF-0.001
aF-0.001
aF-0.001
aF-0.001
aF-0.001
aF-0.001
aF-0.001
aF-0.001
aF-0.001
aF-0.001
aF-0.001
aF-0.001
aF-0.001
aF-0.001
aF-0.001
aF-0.001
aF-0.001
aF-0.001
aF-0.001
aF-0.001
aF-0.001
aF-0.001
aF-0.001
aa(lp138
F-0.001
aF-0.001
aF-0.001
aF-0.001
aF-0.001
aF-0.001
aF-0.001
aF-0.001
aF-0.001
aF-0.001
aF-0.001
aF-0.001
aF-0.001
aF-0.001
aF-0.001
aF-0.001
aF-0.001
aF-0.001
aF-0.001
aF-0.001
aF-0.001
aF-0.001
aF-0.001
aF-0.001
aF-0.001
aF-0.001
aF-0.001
aF-0.001
aF-0.001
aF-0.001
aF-0.001
aF-0.001
aF-0.001
aF-0.001
aF-0.001
aF-0.001
aF-0.001
aF-0.001
aF-0.001
aF-0.001
aF-0.001
aF-0.001
aF-0.001
aF-0.001
aF-0.001
aF-0.001
aF-0.001
aF-0.001
aF-0.001
aF-0.001
aa(lp139
F-0.001
aF-0.001
aF-0.001
aF-0.001
aF-0.001
aF-0.001
aF-0.001
aF-0.001
aF-0.001
aF-0.001
aF-0.001
aF-0.001
aF-0.001
aF-0.001
aF-0.001
aF-0.001
aF-0.001
aF-0.001
aF-0.001
aF-0.001
aF-0.001
aF-0.001
aF-0.001
aF-0.001
aF-0.001
aF-0.001
aF-0.001
aF-0.001
aF-0.001
aF-0.001
aF-0.001
aF-0.001
aF-0.001
aF-0.001
aF-0.001
aF-0.001
aF-0.001
aF-0.001
aF-0.001
aF-0.001
aF-0.001
aF-0.001
aF-0.001
aF-0.001
aF-0.001
aF-0.001
aF-0.001
aF-0.001
aF-0.001
aa(lp140
F-0.001
aF-0.001
aF-0.001
aF-0.001
aF-0.001
aF-0.001
aF-0.001
aF-0.001
aF-0.001
aF-0.001
aF-0.001
aF-0.001
aF-0.001
aF-0.001
aF-0.001
aF-0.001
aF-0.001
aF-0.001
aF-0.001
aF-0.001
aF-0.001
aF-0.001
aF-0.001
aF-0.001
aF-0.001
aF-0.001
aF-0.001
aF-0.001
aF-0.001
aF-0.001
aF-0.001
aF-0.001
aF-0.001
aF-0.001
aF-0.001
aF-0.001
aF-0.001
aF-0.001
aF-0.001
aF-0.001
aF-0.001
aF-0.001
aF-0.001
aF-0.001
aF-0.001
aF-0.001
aF-0.001
aF-0.001
aF-0.001
aF-0.001
aF-0.001
aF-0.001
aF-0.001
aF-0.001
aF-0.001
aF-0.001
aF-0.001
aF-0.001
aF-0.001
aF-0.001
aF-0.001
aF-0.001
aF-0.001
aF-0.001
aa(lp141
F-0.001
aF-0.001
aF-0.001
aF-0.001
aF-0.001
aF-0.001
aF-0.001
aF-0.001
aF-0.001
aF-0.001
aF-0.001
aF-0.001
aF-0.001
aF-0.001
aF-0.001
aF-0.001
aF-0.001
aF-0.001
aF-0.001
aF-0.001
aF-0.001
aF-0.001
aF-0.001
aF-0.001
aF-0.001
aF-0.001
aF-0.001
aF-0.001
aF-0.001
aF-0.001
aF-0.001
aF-0.001
aF-0.001
aF-0.001
aF-0.001
aF-0.001
aF-0.001
aF-0.001
aF-0.001
aF-0.001
aF-0.001
aF-0.001
aF-0.001
aF-0.001
aF-0.001
aF-0.001
aF-0.001
aF-0.001
aF-0.001
aF-0.001
aF-0.001
aF-0.001
aF-0.001
aF-0.001
aF-0.001
aF-0.001
aF-0.001
aF-0.001
aF-0.001
aF-0.001
aF-0.001
aF-0.001
aF-0.001
aF-0.001
aF-0.001
aa(lp142
F-0.001
aF-0.001
aF-0.001
aF-0.001
aF-0.001
aF-0.001
aF-0.001
aF-0.001
aF-0.001
aF-0.001
aF-0.001
aF-0.001
aF-0.001
aF-0.001
aF-0.001
aF-0.001
aF-0.001
aF-0.001
aF-0.001
aF-0.001
aF-0.001
aF-0.001
aF-0.001
aF-0.001
aF-0.001
aF-0.001
aF-0.001
aF-0.001
aF-0.001
aF-0.001
aF-0.001
aF-0.001
aF-0.001
aF-0.001
aF-0.001
aF-0.001
aF-0.001
aF-0.001
aF-0.001
aF-0.001
aF-0.001
aF-0.001
aF-0.001
aF-0.001
aF-0.001
aF-0.001
aF-0.001
aF-0.001
aF-0.001
aF-0.001
aF-0.001
aF-0.001
aF-0.001
aa(lp143
F-0.001
aF-0.001
aF-0.001
aF-0.001
aF-0.001
aF-0.001
aF-0.001
aF-0.001
aF-0.001
aF-0.001
aF-0.001
aF-0.001
aF-0.001
aF-0.001
aF-0.001
aF-0.001
aF-0.001
aF-0.001
aF-0.001
aF-0.001
aF-0.001
aF-0.001
aF-0.001
aF-0.001
aF-0.001
aF-0.001
aF-0.001
aF-0.001
aF-0.001
aF-0.001
aF-0.001
aF-0.001
aF-0.001
aF-0.001
aF-0.001
aF-0.001
aF-0.001
aF-0.001
aF-0.001
aF-0.001
aF-0.001
aF-0.001
aF-0.001
aF-0.001
aF-0.001
aF-0.001
aF-0.001
aF-0.001
aF-0.001
aF-0.001
aF-0.001
aF-0.001
aF-0.001
aF-0.001
aF-0.001
aF-0.001
aF-0.001
aF-0.001
aF-0.001
aF-0.001
aF-0.001
aF-0.001
aF-0.001
aF-0.001
aF-0.001
aF-0.001
aa(lp144
F-0.001
aF-0.001
aF-0.001
aF-0.001
aF-0.001
aF-0.001
aF-0.001
aF-0.001
aF-0.001
aF-0.001
aF-0.001
aF-0.001
aF-0.001
aF-0.001
aF-0.001
aF-0.001
aF-0.001
aF-0.001
aF-0.001
aF-0.001
aF-0.001
aF-0.001
aF-0.001
aF-0.001
aF-0.001
aF-0.001
aF-0.001
aF-0.001
aF-0.001
aF-0.001
aF-0.001
aF-0.001
aF-0.001
aF-0.001
aF-0.001
aF-0.001
aF-0.001
aF-0.001
aF-0.001
aF-0.001
aF-0.001
aF-0.001
aF-0.001
aF-0.001
aF-0.001
aF-0.001
aF-0.001
aF-0.001
aF-0.001
aF-0.001
aF-0.001
aF-0.001
aF-0.001
aF-0.001
aF-0.001
aF-0.001
aF-0.001
aF-0.001
aF-0.001
aF-0.001
aF-0.001
aF-0.001
aa(lp145
F-0.001
aF-0.001
aF-0.001
aF-0.001
aF-0.001
aF-0.001
aF-0.001
aF-0.001
aF-0.001
aF-0.001
aF-0.001
aF-0.001
aF-0.001
aF-0.001
aF-0.001
aF-0.001
aF-0.001
aF-0.001
aF-0.001
aF-0.001
aF-0.001
aF-0.001
aF-0.001
aF-0.001
aF-0.001
aF-0.001
aF-0.001
aF-0.001
aF-0.001
aF-0.001
aF-0.001
aF-0.001
aF-0.001
aF-0.001
aF-0.001
aF-0.001
aF-0.001
aF-0.001
aF-0.001
aF-0.001
aF-0.001
aF-0.001
aF-0.001
aF-0.001
aF-0.001
aF-0.001
aF-0.001
aF-0.001
aF-0.001
aF-0.001
aF-0.001
aF-0.001
aF-0.001
aF-0.001
aF-0.001
aa(lp146
F-0.001
aF-0.001
aF-0.001
aF-0.001
aF-0.001
aF-0.001
aF-0.001
aF-0.001
aF-0.001
aF-0.001
aF-0.001
aF-0.001
aF-0.001
aF-0.001
aF-0.001
aF-0.001
aF-0.001
aF-0.001
aF-0.001
aF-0.001
aF-0.001
aF-0.001
aF-0.001
aF-0.001
aF-0.001
aF-0.001
aF-0.001
aF-0.001
aF-0.001
aF-0.001
aF-0.001
aF-0.001
aF-0.001
aF-0.001
aF-0.001
aF-0.001
aF-0.001
aF-0.001
aF-0.001
aF-0.001
aF-0.001
aF-0.001
aF-0.001
aF-0.001
aF-0.001
aF-0.001
aF-0.001
aF-0.001
aF-0.001
aF-0.001
aF-0.001
aF-0.001
aF-0.001
aF-0.001
aF-0.001
aF-0.001
aF-0.001
aF-0.001
aF-0.001
aF-0.001
aF-0.001
aF-0.001
aF-0.001
aF-0.001
aF-0.001
aF-0.001
aa(lp147
F-0.001
aF-0.001
aF-0.001
aF-0.001
aF-0.001
aF-0.001
aF-0.001
aF-0.001
aF-0.001
aF-0.001
aF-0.001
aF-0.001
aF-0.001
aF-0.001
aF-0.001
aF-0.001
aF-0.001
aF-0.001
aF-0.001
aF-0.001
aF-0.001
aF-0.001
aF-0.001
aF-0.001
aF-0.001
aF-0.001
aF-0.001
aF-0.001
aF-0.001
aF-0.001
aF-0.001
aF-0.001
aF-0.001
aF-0.001
aF-0.001
aF-0.001
aF-0.001
aF-0.001
aF-0.001
aF-0.001
aF-0.001
aF-0.001
aF-0.001
aF-0.001
aF-0.001
aF-0.001
aF-0.001
aF-0.001
aF-0.001
aF-0.001
aF-0.001
aF-0.001
aa(lp148
F-0.001
aF-0.001
aF-0.001
aF-0.001
aF-0.001
aF-0.001
aF-0.001
aF-0.001
aF-0.001
aF-0.001
aF-0.001
aF-0.001
aF-0.001
aF-0.001
aF-0.001
aF-0.001
aF-0.001
aF-0.001
aF-0.001
aF-0.001
aF-0.001
aF-0.001
aF-0.001
aF-0.001
aF-0.001
aF-0.001
aF-0.001
aF-0.001
aF-0.001
aF-0.001
aF-0.001
aF-0.001
aF-0.001
aF-0.001
aF-0.001
aF-0.001
aF-0.001
aF-0.001
aF-0.001
aF-0.001
aF-0.001
aF-0.001
aF-0.001
aF-0.001
aF-0.001
aF-0.001
aF-0.001
aF-0.001
aF-0.001
aF-0.001
aF-0.001
aF-0.001
aF-0.001
aF-0.001
aF-0.001
aF-0.001
aF-0.001
aF-0.001
aF-0.001
aF-0.001
aF-0.001
aF-0.001
aa(lp149
F-0.001
aF-0.001
aF-0.001
aF-0.001
aF-0.001
aF-0.001
aF-0.001
aF-0.001
aF-0.001
aF-0.001
aF-0.001
aF-0.001
aF-0.001
aF-0.001
aF-0.001
aF-0.001
aF-0.001
aF-0.001
aF-0.001
aF-0.001
aF-0.001
aF-0.001
aF-0.001
aF-0.001
aF-0.001
aF-0.001
aF-0.001
aF-0.001
aF-0.001
aF-0.001
aF-0.001
aF-0.001
aF-0.001
aF-0.001
aF-0.001
aF-0.001
aF-0.001
aF-0.001
aF-0.001
aF-0.001
aF-0.001
aF-0.001
aF-0.001
aF-0.001
aF-0.001
aF-0.001
aF-0.001
aF-0.001
aF-0.001
aF-0.001
aF-0.001
aF-0.001
aF-0.001
aF-0.001
aF-0.001
aF-0.001
aF-0.001
aF-0.001
aF-0.001
aF-0.001
aF-0.001
aF-0.001
aF-0.001
aF-0.001
aF-0.001
aF-0.001
aF-0.001
aF-0.001
aF-0.001
aF-0.001
aa(lp150
F-0.001
aF-0.001
aF-0.001
aF-0.001
aF-0.001
aF-0.001
aF-0.001
aF-0.001
aF-0.001
aF-0.001
aF-0.001
aF-0.001
aF-0.001
aF-0.001
aF-0.001
aF-0.001
aF-0.001
aF-0.001
aF-0.001
aF-0.001
aF-0.001
aF-0.001
aF-0.001
aF-0.001
aF-0.001
aF-0.001
aF-0.001
aF-0.001
aF-0.001
aF-0.001
aF-0.001
aF-0.001
aF-0.001
aF-0.001
aF-0.001
aF-0.001
aF-0.001
aF-0.001
aF-0.001
aF-0.001
aF-0.001
aF-0.001
aF-0.001
aF-0.001
aF-0.001
aF-0.001
aF-0.001
aF-0.001
aF-0.001
aF-0.001
aF-0.001
aF-0.001
aF-0.001
aF-0.001
aF-0.001
aF-0.001
aF-0.001
aF-0.001
aF-0.001
aF-0.001
aF-0.001
aF-0.001
aF-0.001
aF-0.001
aF-0.001
aF-0.001
aF-0.001
aF-0.001
aF-0.001
aF-0.001
aF-0.001
aF-0.001
aF-0.001
aF-0.001
aF-0.001
aa(lp151
F-0.001
aF-0.001
aF-0.001
aF-0.001
aF-0.001
aF-0.001
aF-0.001
aF-0.001
aF-0.001
aF-0.001
aF-0.001
aF-0.001
aF-0.001
aF-0.001
aF-0.001
aF-0.001
aF-0.001
aF-0.001
aF-0.001
aF-0.001
aF-0.001
aF-0.001
aF-0.001
aF-0.001
aF-0.001
aF-0.001
aF-0.001
aF-0.001
aF-0.001
aF-0.001
aF-0.001
aF-0.001
aF-0.001
aF-0.001
aF-0.001
aF-0.001
aF-0.001
aF-0.001
aF-0.001
aF-0.001
aF-0.001
aF-0.001
aF-0.001
aF-0.001
aF-0.001
aF-0.001
aF-0.001
aF-0.001
aF-0.001
aF-0.001
aF-0.001
aF-0.001
aF-0.001
aF-0.001
aF-0.001
aF-0.001
aF-0.001
aF-0.001
aF-0.001
aF-0.001
aF-0.001
aF-0.001
aa(lp152
F-0.001
aF-0.001
aF-0.001
aF-0.001
aF-0.001
aF-0.001
aF-0.001
aF-0.001
aF-0.001
aF-0.001
aF-0.001
aF-0.001
aF-0.001
aF-0.001
aF-0.001
aF-0.001
aF-0.001
aF-0.001
aF-0.001
aF-0.001
aF-0.001
aF-0.001
aF-0.001
aF-0.001
aF-0.001
aF-0.001
aF-0.001
aF-0.001
aF-0.001
aF-0.001
aF-0.001
aF-0.001
aF-0.001
aF-0.001
aF-0.001
aF-0.001
aF-0.001
aF-0.001
aF-0.001
aF-0.001
aF-0.001
aF-0.001
aF-0.001
aF-0.001
aF-0.001
aF-0.001
aF-0.001
aF-0.001
aF-0.001
aa(lp153
F-0.001
aF-0.001
aF-0.001
aF-0.001
aF-0.001
aF-0.001
aF-0.001
aF-0.001
aF-0.001
aF-0.001
aF-0.001
aF-0.001
aF-0.001
aF-0.001
aF-0.001
aF-0.001
aF-0.001
aF-0.001
aF-0.001
aF-0.001
aF-0.001
aF-0.001
aF-0.001
aF-0.001
aF-0.001
aF-0.001
aF-0.001
aF-0.001
aF-0.001
aF-0.001
aF-0.001
aF-0.001
aF-0.001
aF-0.001
aF-0.001
aF-0.001
aF-0.001
aF-0.001
aF-0.001
aF-0.001
aF-0.001
aF-0.001
aF-0.001
aF-0.001
aF-0.001
aF-0.001
aF-0.001
aF-0.001
aF-0.001
aF-0.001
aF-0.001
aF-0.001
aF-0.001
aF-0.001
aF-0.001
aF-0.001
aF-0.001
aF-0.001
aa(lp154
F-0.001
aF-0.001
aF-0.001
aF-0.001
aF-0.001
aF-0.001
aF-0.001
aF-0.001
aF-0.001
aF-0.001
aF-0.001
aF-0.001
aF-0.001
aF-0.001
aF-0.001
aF-0.001
aF-0.001
aF-0.001
aF-0.001
aF-0.001
aF-0.001
aF-0.001
aF-0.001
aF-0.001
aF-0.001
aF-0.001
aF-0.001
aF-0.001
aF-0.001
aF-0.001
aF-0.001
aF-0.001
aF-0.001
aF-0.001
aF-0.001
aF-0.001
aF-0.001
aF-0.001
aF-0.001
aF-0.001
aF-0.001
aF-0.001
aF-0.001
aF-0.001
aF-0.001
aF-0.001
aF-0.001
aF-0.001
aF-0.001
aF-0.001
aF-0.001
aF-0.001
aF-0.001
aF-0.001
aF-0.001
aF-0.001
aF-0.001
aF-0.001
aF-0.001
aF-0.001
aF-0.001
aF-0.001
aF-0.001
aa(lp155
F-0.001
aF-0.001
aF-0.001
aF-0.001
aF-0.001
aF-0.001
aF-0.001
aF-0.001
aF-0.001
aF-0.001
aF-0.001
aF-0.001
aF-0.001
aF-0.001
aF-0.001
aF-0.001
aF-0.001
aF-0.001
aF-0.001
aF-0.001
aF-0.001
aF-0.001
aF-0.001
aF-0.001
aF-0.001
aF-0.001
aF-0.001
aF-0.001
aF-0.001
aF-0.001
aF-0.001
aF-0.001
aF-0.001
aF-0.001
aF-0.001
aF-0.001
aF-0.001
aF-0.001
aF-0.001
aF-0.001
aF-0.001
aF-0.001
aF-0.001
aF-0.001
aF-0.001
aF-0.001
aF-0.001
aF-0.001
aF-0.001
aF-0.001
aF-0.001
aF-0.001
aF-0.001
aF-0.001
aF-0.001
aF-0.001
aF-0.001
aF-0.001
aF-0.001
aF-0.001
aF-0.001
aF-0.001
aa(lp156
F-0.001
aF-0.001
aF-0.001
aF-0.001
aF-0.001
aF-0.001
aF-0.001
aF-0.001
aF-0.001
aF-0.001
aF-0.001
aF-0.001
aF-0.001
aF-0.001
aF-0.001
aF-0.001
aF-0.001
aF-0.001
aF-0.001
aF-0.001
aF-0.001
aF-0.001
aF-0.001
aF-0.001
aF-0.001
aF-0.001
aF-0.001
aF-0.001
aF-0.001
aF-0.001
aF-0.001
aF-0.001
aF-0.001
aF-0.001
aF-0.001
aF-0.001
aF-0.001
aF-0.001
aF-0.001
aF-0.001
aF-0.001
aF-0.001
aF-0.001
aF-0.001
aF-0.001
aF-0.001
aF-0.001
aF-0.001
aF-0.001
aF-0.001
aF-0.001
aa(lp157
F-0.001
aF-0.001
aF-0.001
aF-0.001
aF-0.001
aF-0.001
aF-0.001
aF-0.001
aF-0.001
aF-0.001
aF-0.001
aF-0.001
aF-0.001
aF-0.001
aF-0.001
aF-0.001
aF-0.001
aF-0.001
aF-0.001
aF-0.001
aF-0.001
aF-0.001
aF-0.001
aF-0.001
aF-0.001
aF-0.001
aF-0.001
aF-0.001
aF-0.001
aF-0.001
aF-0.001
aF-0.001
aF-0.001
aF-0.001
aF-0.001
aF-0.001
aF-0.001
aF-0.001
aF-0.001
aF-0.001
aF-0.001
aF-0.001
aF-0.001
aF-0.001
aF-0.001
aF-0.001
aF-0.001
aF-0.001
aF-0.001
aF-0.001
aF-0.001
aF-0.001
aF-0.001
aF-0.001
aF-0.001
aF-0.001
aF-0.001
aF-0.001
aF-0.001
aF-0.001
aF-0.001
aF-0.001
aF-0.001
aa(lp158
F-0.001
aF-0.001
aF-0.001
aF-0.001
aF-0.001
aF-0.001
aF-0.001
aF-0.001
aF-0.001
aF-0.001
aF-0.001
aF-0.001
aF-0.001
aF-0.001
aF-0.001
aF-0.001
aF-0.001
aF-0.001
aF-0.001
aF-0.001
aF-0.001
aF-0.001
aF-0.001
aF-0.001
aF-0.001
aF-0.001
aF-0.001
aF-0.001
aF-0.001
aF-0.001
aF-0.001
aF-0.001
aF-0.001
aF-0.001
aF-0.001
aF-0.001
aF-0.001
aF-0.001
aF-0.001
aF-0.001
aF-0.001
aF-0.001
aF-0.001
aF-0.001
aF-0.001
aF-0.001
aF-0.001
aF-0.001
aF-0.001
aF-0.001
aa(lp159
F-0.001
aF-0.001
aF-0.001
aF-0.001
aF-0.001
aF-0.001
aF-0.001
aF-0.001
aF-0.001
aF-0.001
aF-0.001
aF-0.001
aF-0.001
aF-0.001
aF-0.001
aF-0.001
aF-0.001
aF-0.001
aF-0.001
aF-0.001
aF-0.001
aF-0.001
aF-0.001
aF-0.001
aF-0.001
aF-0.001
aF-0.001
aF-0.001
aF-0.001
aF-0.001
aF-0.001
aF-0.001
aF-0.001
aF-0.001
aF-0.001
aF-0.001
aF-0.001
aF-0.001
aF-0.001
aF-0.001
aF-0.001
aF-0.001
aF-0.001
aF-0.001
aF-0.001
aF-0.001
aF-0.001
aF-0.001
aF-0.001
aF-0.001
aF-0.001
aF-0.001
aF-0.001
aF-0.001
aF-0.001
aF-0.001
aF-0.001
aa(lp160
F-0.001
aF-0.001
aF-0.001
aF-0.001
aF-0.001
aF-0.001
aF-0.001
aF-0.001
aF-0.001
aF-0.001
aF-0.001
aF-0.001
aF-0.001
aF-0.001
aF-0.001
aF-0.001
aF-0.001
aF-0.001
aF-0.001
aF-0.001
aF-0.001
aF-0.001
aF-0.001
aF-0.001
aF-0.001
aF-0.001
aF-0.001
aF-0.001
aF-0.001
aF-0.001
aF-0.001
aF-0.001
aF-0.001
aF-0.001
aF-0.001
aF-0.001
aF-0.001
aF-0.001
aF-0.001
aF-0.001
aF-0.001
aF-0.001
aF-0.001
aF-0.001
aF-0.001
aF-0.001
aF-0.001
aF-0.001
aF-0.001
aF-0.001
aF-0.001
aF-0.001
aF-0.001
aF-0.001
aF-0.001
aF-0.001
aF-0.001
aF-0.001
aa(lp161
F-0.001
aF-0.001
aF-0.001
aF-0.001
aF-0.001
aF-0.001
aF-0.001
aF-0.001
aF-0.001
aF-0.001
aF-0.001
aF-0.001
aF-0.001
aF-0.001
aF-0.001
aF-0.001
aF-0.001
aF-0.001
aF-0.001
aF-0.001
aF-0.001
aF-0.001
aF-0.001
aF-0.001
aF-0.001
aF-0.001
aF-0.001
aF-0.001
aF-0.001
aF-0.001
aF-0.001
aF-0.001
aF-0.001
aF-0.001
aF-0.001
aF-0.001
aF-0.001
aF-0.001
aF-0.001
aF-0.001
aF-0.001
aF-0.001
aF-0.001
aF-0.001
aF-0.001
aF-0.001
aF-0.001
aF-0.001
aF-0.001
aF-0.001
aF-0.001
aF-0.001
aF-0.001
aF-0.001
aF-0.001
aF-0.001
aa(lp162
F-0.001
aF-0.001
aF-0.001
aF-0.001
aF-0.001
aF-0.001
aF-0.001
aF-0.001
aF-0.001
aF-0.001
aF-0.001
aF-0.001
aF-0.001
aF-0.001
aF-0.001
aF-0.001
aF-0.001
aF-0.001
aF-0.001
aF-0.001
aF-0.001
aF-0.001
aF-0.001
aF-0.001
aF-0.001
aF-0.001
aF-0.001
aF-0.001
aF-0.001
aF-0.001
aF-0.001
aF-0.001
aF-0.001
aF-0.001
aF-0.001
aF-0.001
aF-0.001
aF-0.001
aF-0.001
aF-0.001
aF-0.001
aF-0.001
aF-0.001
aF-0.001
aF-0.001
aa(lp163
F-0.001
aF-0.001
aF-0.001
aF-0.001
aF-0.001
aF-0.001
aF-0.001
aF-0.001
aF-0.001
aF-0.001
aF-0.001
aF-0.001
aF-0.001
aF-0.001
aF-0.001
aF-0.001
aF-0.001
aF-0.001
aF-0.001
aF-0.001
aF-0.001
aF-0.001
aF-0.001
aF-0.001
aF-0.001
aF-0.001
aF-0.001
aF-0.001
aF-0.001
aF-0.001
aF-0.001
aF-0.001
aF-0.001
aF-0.001
aF-0.001
aF-0.001
aF-0.001
aF-0.001
aF-0.001
aF-0.001
aF-0.001
aF-0.001
aF-0.001
aF-0.001
aF-0.001
aF-0.001
aF-0.001
aF-0.001
aF-0.001
aF-0.001
aF-0.001
aF-0.001
aF-0.001
aF-0.001
aF-0.001
aa(lp164
F-0.001
aF-0.001
aF-0.001
aF-0.001
aF-0.001
aF-0.001
aF-0.001
aF-0.001
aF-0.001
aF-0.001
aF-0.001
aF-0.001
aF-0.001
aF-0.001
aF-0.001
aF-0.001
aF-0.001
aF-0.001
aF-0.001
aF-0.001
aF-0.001
aF-0.001
aF-0.001
aF-0.001
aF-0.001
aF-0.001
aF-0.001
aF-0.001
aF-0.001
aF-0.001
aF-0.001
aF-0.001
aF-0.001
aF-0.001
aF-0.001
aF-0.001
aF-0.001
aF-0.001
aF-0.001
aF-0.001
aF-0.001
aF-0.001
aF-0.001
aF-0.001
aF-0.001
aF-0.001
aF-0.001
aF-0.001
aF-0.001
aF-0.001
aF-0.001
aF-0.001
aF-0.001
aF-0.001
aF-0.001
aF-0.001
aF-0.001
aF-0.001
aF-0.001
aF-0.001
aF-0.001
aF-0.001
aF-0.001
aF-0.001
aF-0.001
aF-0.001
aF-0.001
aF-0.001
aa(lp165
F-0.001
aF-0.001
aF-0.001
aF-0.001
aF-0.001
aF-0.001
aF-0.001
aF-0.001
aF-0.001
aF-0.001
aF-0.001
aF-0.001
aF-0.001
aF-0.001
aF-0.001
aF-0.001
aF-0.001
aF-0.001
aF-0.001
aF-0.001
aF-0.001
aF-0.001
aF-0.001
aF-0.001
aF-0.001
aF-0.001
aF-0.001
aF-0.001
aF-0.001
aF-0.001
aF-0.001
aF-0.001
aF-0.001
aF-0.001
aF-0.001
aF-0.001
aF-0.001
aF-0.001
aF-0.001
aF-0.001
aF-0.001
aF-0.001
aF-0.001
aF-0.001
aF-0.001
aF-0.001
aF-0.001
aF-0.001
aF-0.001
aF-0.001
aF-0.001
aa(lp166
F-0.001
aF-0.001
aF-0.001
aF-0.001
aF-0.001
aF-0.001
aF-0.001
aF-0.001
aF-0.001
aF-0.001
aF-0.001
aF-0.001
aF-0.001
aF-0.001
aF-0.001
aF-0.001
aF-0.001
aF-0.001
aF-0.001
aF-0.001
aF-0.001
aF-0.001
aF-0.001
aF-0.001
aF-0.001
aF-0.001
aF-0.001
aF-0.001
aF-0.001
aF-0.001
aF-0.001
aF-0.001
aF-0.001
aF-0.001
aF-0.001
aF-0.001
aF-0.001
aF-0.001
aF-0.001
aF-0.001
aF-0.001
aF-0.001
aF-0.001
aF-0.001
aF-0.001
aF-0.001
aF-0.001
aF-0.001
aF-0.001
aF-0.001
aF-0.001
aF-0.001
aF-0.001
aF-0.001
aF-0.001
aa(lp167
F-0.001
aF-0.001
aF-0.001
aF-0.001
aF-0.001
aF-0.001
aF-0.001
aF-0.001
aF-0.001
aF-0.001
aF-0.001
aF-0.001
aF-0.001
aF-0.001
aF-0.001
aF-0.001
aF-0.001
aF-0.001
aF-0.001
aF-0.001
aF-0.001
aF-0.001
aF-0.001
aF-0.001
aF-0.001
aF-0.001
aF-0.001
aF-0.001
aF-0.001
aF-0.001
aF-0.001
aF-0.001
aF-0.001
aF-0.001
aF-0.001
aF-0.001
aF-0.001
aF-0.001
aF-0.001
aF-0.001
aF-0.001
aF-0.001
aF-0.001
aF-0.001
aF-0.001
aF-0.001
aF-0.001
aF-0.001
aF-0.001
aF-0.001
aF-0.001
aF-0.001
aF-0.001
aF-0.001
aF-0.001
aF-0.001
aF-0.001
aF-0.001
aF-0.001
aF-0.001
aF-0.001
aF-0.001
aF-0.001
aF-0.001
aF-0.001
aF-0.001
aF-0.001
aF-0.001
aF-0.001
aF-0.001
aa(lp168
F-0.001
aF-0.001
aF-0.001
aF-0.001
aF-0.001
aF-0.001
aF-0.001
aF-0.001
aF-0.001
aF-0.001
aF-0.001
aF-0.001
aF-0.001
aF-0.001
aF-0.001
aF-0.001
aF-0.001
aF-0.001
aF-0.001
aF-0.001
aF-0.001
aF-0.001
aF-0.001
aF-0.001
aF-0.001
aF-0.001
aF-0.001
aF-0.001
aF-0.001
aF-0.001
aF-0.001
aF-0.001
aF-0.001
aF-0.001
aF-0.001
aF-0.001
aF-0.001
aF-0.001
aF-0.001
aF-0.001
aF-0.001
aF-0.001
aF-0.001
aF-0.001
aF-0.001
aF-0.001
aF-0.001
aF-0.001
aF-0.001
aF-0.001
aF-0.001
aF-0.001
aF-0.001
aF-0.001
aF-0.001
aF-0.001
aF-0.001
aF-0.001
aF-0.001
aF-0.001
aF-0.001
aF-0.001
aF-0.001
aF-0.001
aF-0.001
aF-0.001
aF-0.001
aF-0.001
aF-0.001
aF-0.001
aF-0.001
aa(lp169
F-0.001
aF-0.001
aF-0.001
aF-0.001
aF-0.001
aF-0.001
aF-0.001
aF-0.001
aF-0.001
aF-0.001
aF-0.001
aF-0.001
aF-0.001
aF-0.001
aF-0.001
aF-0.001
aF-0.001
aF-0.001
aF-0.001
aF-0.001
aF-0.001
aF-0.001
aF-0.001
aF-0.001
aF-0.001
aF-0.001
aF-0.001
aF-0.001
aF-0.001
aF-0.001
aF-0.001
aF-0.001
aF-0.001
aF-0.001
aF-0.001
aF-0.001
aF-0.001
aF-0.001
aF-0.001
aF-0.001
aF-0.001
aF-0.001
aF-0.001
aF-0.001
aF-0.001
aF-0.001
aF-0.001
aF-0.001
aF-0.001
aF-0.001
aF-0.001
aF-0.001
aF-0.001
aa(lp170
F-0.001
aF-0.001
aF-0.001
aF-0.001
aF-0.001
aF-0.001
aF-0.001
aF-0.001
aF-0.001
aF-0.001
aF-0.001
aF-0.001
aF-0.001
aF-0.001
aF-0.001
aF-0.001
aF-0.001
aF-0.001
aF-0.001
aF-0.001
aF-0.001
aF-0.001
aF-0.001
aF-0.001
aF-0.001
aF-0.001
aF-0.001
aF-0.001
aF-0.001
aF-0.001
aF-0.001
aF-0.001
aF-0.001
aF-0.001
aF-0.001
aF-0.001
aF-0.001
aF-0.001
aF-0.001
aF-0.001
aF-0.001
aF-0.001
aF-0.001
aF-0.001
aF-0.001
aF-0.001
aF-0.001
aF-0.001
aF-0.001
aF-0.001
aF-0.001
aF-0.001
aF-0.001
aF-0.001
aa(lp171
F-0.001
aF-0.001
aF-0.001
aF-0.001
aF-0.001
aF-0.001
aF-0.001
aF-0.001
aF-0.001
aF-0.001
aF-0.001
aF-0.001
aF-0.001
aF-0.001
aF-0.001
aF-0.001
aF-0.001
aF-0.001
aF-0.001
aF-0.001
aF-0.001
aF-0.001
aF-0.001
aF-0.001
aF-0.001
aF-0.001
aF-0.001
aF-0.001
aF-0.001
aF-0.001
aF-0.001
aF-0.001
aF-0.001
aF-0.001
aF-0.001
aF-0.001
aF-0.001
aF-0.001
aF-0.001
aF-0.001
aF-0.001
aF-0.001
aF-0.001
aF-0.001
aF-0.001
aF-0.001
aF-0.001
aF-0.001
aF-0.001
aF-0.001
aF-0.001
aF-0.001
aF-0.001
aF-0.001
aF-0.001
aF-0.001
aF-0.001
aF-0.001
aa(lp172
F-0.001
aF-0.001
aF-0.001
aF-0.001
aF-0.001
aF-0.001
aF-0.001
aF-0.001
aF-0.001
aF-0.001
aF-0.001
aF-0.001
aF-0.001
aF-0.001
aF-0.001
aF-0.001
aF-0.001
aF-0.001
aF-0.001
aF-0.001
aF-0.001
aF-0.001
aF-0.001
aF-0.001
aF-0.001
aF-0.001
aF-0.001
aF-0.001
aF-0.001
aF-0.001
aF-0.001
aF-0.001
aF-0.001
aF-0.001
aF-0.001
aF-0.001
aF-0.001
aF-0.001
aF-0.001
aF-0.001
aF-0.001
aF-0.001
aF-0.001
aF-0.001
aF-0.001
aF-0.001
aF-0.001
aF-0.001
aF-0.001
aF-0.001
aF-0.001
aF-0.001
aF-0.001
aF-0.001
aF-0.001
aF-0.001
aF-0.001
aF-0.001
aF-0.001
aF-0.001
aF-0.001
aa(lp173
F-0.001
aF-0.001
aF-0.001
aF-0.001
aF-0.001
aF-0.001
aF-0.001
aF-0.001
aF-0.001
aF-0.001
aF-0.001
aF-0.001
aF-0.001
aF-0.001
aF-0.001
aF-0.001
aF-0.001
aF-0.001
aF-0.001
aF-0.001
aF-0.001
aF-0.001
aF-0.001
aF-0.001
aF-0.001
aF-0.001
aF-0.001
aF-0.001
aF-0.001
aF-0.001
aF-0.001
aF-0.001
aF-0.001
aF-0.001
aF-0.001
aF-0.001
aF-0.001
aF-0.001
aF-0.001
aF-0.001
aF-0.001
aF-0.001
aF-0.001
aF-0.001
aF-0.001
aF-0.001
aF-0.001
aF-0.001
aF-0.001
aF-0.001
aF-0.001
aF-0.001
aF-0.001
aF-0.001
aF-0.001
aF-0.001
aF-0.001
aF-0.001
aF-0.001
aF-0.001
aF-0.001
aF-0.001
aF-0.001
aF-0.001
aF-0.001
aF-0.001
aF-0.001
aa(lp174
F-0.001
aF-0.001
aF-0.001
aF-0.001
aF-0.001
aF-0.001
aF-0.001
aF-0.001
aF-0.001
aF-0.001
aF-0.001
aF-0.001
aF-0.001
aF-0.001
aF-0.001
aF-0.001
aF-0.001
aF-0.001
aF-0.001
aF-0.001
aF-0.001
aF-0.001
aF-0.001
aF-0.001
aF-0.001
aF-0.001
aF-0.001
aF-0.001
aF-0.001
aF-0.001
aF-0.001
aF-0.001
aF-0.001
aF-0.001
aF-0.001
aF-0.001
aF-0.001
aF-0.001
aF-0.001
aF-0.001
aF-0.001
aF-0.001
aF-0.001
aF-0.001
aF-0.001
aF-0.001
aF-0.001
aF-0.001
aF-0.001
aF-0.001
aF-0.001
aF-0.001
aF-0.001
aF-0.001
aF-0.001
aF-0.001
aF-0.001
aF-0.001
aF-0.001
aF-0.001
aF-0.001
aa(lp175
F-0.001
aF-0.001
aF-0.001
aF-0.001
aF-0.001
aF-0.001
aF-0.001
aF-0.001
aF-0.001
aF-0.001
aF-0.001
aF-0.001
aF-0.001
aF-0.001
aF-0.001
aF-0.001
aF-0.001
aF-0.001
aF-0.001
aF-0.001
aF-0.001
aF-0.001
aF-0.001
aF-0.001
aF-0.001
aF-0.001
aF-0.001
aF-0.001
aF-0.001
aF-0.001
aF-0.001
aF-0.001
aF-0.001
aF-0.001
aF-0.001
aF-0.001
aF-0.001
aF-0.001
aF-0.001
aF-0.001
aF-0.001
aF-0.001
aF-0.001
aF-0.001
aF-0.001
aF-0.001
aF-0.001
aF-0.001
aF-0.001
aF-0.001
aF-0.001
aF-0.001
aF-0.001
aF-0.001
aF-0.001
aF-0.001
aF-0.001
aF-0.001
aa(lp176
F-0.001
aF-0.001
aF-0.001
aF-0.001
aF-0.001
aF-0.001
aF-0.001
aF-0.001
aF-0.001
aF-0.001
aF-0.001
aF-0.001
aF-0.001
aF-0.001
aF-0.001
aF-0.001
aF-0.001
aF-0.001
aF-0.001
aF-0.001
aF-0.001
aF-0.001
aF-0.001
aF-0.001
aF-0.001
aF-0.001
aF-0.001
aF-0.001
aF-0.001
aF-0.001
aF-0.001
aF-0.001
aF-0.001
aF-0.001
aF-0.001
aF-0.001
aF-0.001
aF-0.001
aF-0.001
aF-0.001
aF-0.001
aF-0.001
aF-0.001
aF-0.001
aF-0.001
aF-0.001
aF-0.001
aF-0.001
aF-0.001
aF-0.001
aF-0.001
aF-0.001
aF-0.001
aF-0.001
aF-0.001
aF-0.001
aF-0.001
aF-0.001
aF-0.001
aF-0.001
aF-0.001
aF-0.001
aF-0.001
aF-0.001
aF-0.001
aF-0.001
aF-0.001
aF-0.001
aF-0.001
aF-0.001
aa(lp177
F-0.001
aF-0.001
aF-0.001
aF-0.001
aF-0.001
aF-0.001
aF-0.001
aF-0.001
aF-0.001
aF-0.001
aF-0.001
aF-0.001
aF-0.001
aF-0.001
aF-0.001
aF-0.001
aF-0.001
aF-0.001
aF-0.001
aF-0.001
aF-0.001
aF-0.001
aF-0.001
aF-0.001
aF-0.001
aF-0.001
aF-0.001
aF-0.001
aF-0.001
aF-0.001
aF-0.001
aF-0.001
aF-0.001
aF-0.001
aF-0.001
aF-0.001
aF-0.001
aF-0.001
aF-0.001
aF-0.001
aF-0.001
aF-0.001
aF-0.001
aF-0.001
aF-0.001
aF-0.001
aF-0.001
aF-0.001
aF-0.001
aF-0.001
aF-0.001
aF-0.001
aF-0.001
aa(lp178
F-0.001
aF-0.001
aF-0.001
aF-0.001
aF-0.001
aF-0.001
aF-0.001
aF-0.001
aF-0.001
aF-0.001
aF-0.001
aF-0.001
aF-0.001
aF-0.001
aF-0.001
aF-0.001
aF-0.001
aF-0.001
aF-0.001
aF-0.001
aF-0.001
aF-0.001
aF-0.001
aF-0.001
aF-0.001
aF-0.001
aF-0.001
aF-0.001
aF-0.001
aF-0.001
aF-0.001
aF-0.001
aF-0.001
aF-0.001
aF-0.001
aF-0.001
aF-0.001
aF-0.001
aF-0.001
aF-0.001
aF-0.001
aF-0.001
aF-0.001
aF-0.001
aF-0.001
aF-0.001
aF-0.001
aF-0.001
aF-0.001
aa(lp179
F-0.001
aF-0.001
aF-0.001
aF-0.001
aF-0.001
aF-0.001
aF-0.001
aF-0.001
aF-0.001
aF-0.001
aF-0.001
aF-0.001
aF-0.001
aF-0.001
aF-0.001
aF-0.001
aF-0.001
aF-0.001
aF-0.001
aF-0.001
aF-0.001
aF-0.001
aF-0.001
aF-0.001
aF-0.001
aF-0.001
aF-0.001
aF-0.001
aF-0.001
aF-0.001
aF-0.001
aF-0.001
aF-0.001
aF-0.001
aF-0.001
aF-0.001
aF-0.001
aF-0.001
aF-0.001
aF-0.001
aF-0.001
aF-0.001
aF-0.001
aF-0.001
aF-0.001
aF-0.001
aF-0.001
aF-0.001
aF-0.001
aF-0.001
aF-0.001
aF-0.001
aF-0.001
aF-0.001
aF-0.001
aF-0.001
aF-0.001
aF-0.001
aF-0.001
aF-0.001
aF-0.001
aa(lp180
F-0.001
aF-0.001
aF-0.001
aF-0.001
aF-0.001
aF-0.001
aF-0.001
aF-0.001
aF-0.001
aF-0.001
aF-0.001
aF-0.001
aF-0.001
aF-0.001
aF-0.001
aF-0.001
aF-0.001
aF-0.001
aF-0.001
aF-0.001
aF-0.001
aF-0.001
aF-0.001
aF-0.001
aF-0.001
aF-0.001
aF-0.001
aF-0.001
aF-0.001
aF-0.001
aF-0.001
aF-0.001
aF-0.001
aF-0.001
aF-0.001
aF-0.001
aF-0.001
aF-0.001
aF-0.001
aF-0.001
aF-0.001
aF-0.001
aF-0.001
aF-0.001
aF-0.001
aF-0.001
aF-0.001
aF-0.001
aF-0.001
aF-0.001
aF-0.001
aF-0.001
aF-0.001
aa(lp181
F-0.001
aF-0.001
aF-0.001
aF-0.001
aF-0.001
aF-0.001
aF-0.001
aF-0.001
aF-0.001
aF-0.001
aF-0.001
aF-0.001
aF-0.001
aF-0.001
aF-0.001
aF-0.001
aF-0.001
aF-0.001
aF-0.001
aF-0.001
aF-0.001
aF-0.001
aF-0.001
aF-0.001
aF-0.001
aF-0.001
aF-0.001
aF-0.001
aF-0.001
aF-0.001
aF-0.001
aF-0.001
aF-0.001
aF-0.001
aF-0.001
aF-0.001
aF-0.001
aF-0.001
aF-0.001
aF-0.001
aF-0.001
aF-0.001
aF-0.001
aF-0.001
aF-0.001
aF-0.001
aF-0.001
aF-0.001
aF-0.001
aF-0.001
aF-0.001
aF-0.001
aa(lp182
F-0.001
aF-0.001
aF-0.001
aF-0.001
aF-0.001
aF-0.001
aF-0.001
aF-0.001
aF-0.001
aF-0.001
aF-0.001
aF-0.001
aF-0.001
aF-0.001
aF-0.001
aF-0.001
aF-0.001
aF-0.001
aF-0.001
aF-0.001
aF-0.001
aF-0.001
aF-0.001
aF-0.001
aF-0.001
aF-0.001
aF-0.001
aF-0.001
aF-0.001
aF-0.001
aF-0.001
aF-0.001
aF-0.001
aF-0.001
aF-0.001
aF-0.001
aF-0.001
aF-0.001
aF-0.001
aF-0.001
aF-0.001
aF-0.001
aF-0.001
aF-0.001
aF-0.001
aF-0.001
aF-0.001
aF-0.001
aF-0.001
aF-0.001
aF-0.001
aF-0.001
aa(lp183
F-0.001
aF-0.001
aF-0.001
aF-0.001
aF-0.001
aF-0.001
aF-0.001
aF-0.001
aF-0.001
aF-0.001
aF-0.001
aF-0.001
aF-0.001
aF-0.001
aF-0.001
aF-0.001
aF-0.001
aF-0.001
aF-0.001
aF-0.001
aF-0.001
aF-0.001
aF-0.001
aF-0.001
aF-0.001
aF-0.001
aF-0.001
aF-0.001
aF-0.001
aF-0.001
aF-0.001
aF-0.001
aF-0.001
aF-0.001
aF-0.001
aF-0.001
aF-0.001
aF-0.001
aF-0.001
aF-0.001
aF-0.001
aF-0.001
aF-0.001
aF-0.001
aF-0.001
aF-0.001
aF-0.001
aF-0.001
aF-0.001
aF-0.001
aF-0.001
aF-0.001
aF-0.001
aF-0.001
aF-0.001
aF-0.001
aF-0.001
aF-0.001
aa(lp184
F-0.001
aF-0.001
aF-0.001
aF-0.001
aF-0.001
aF-0.001
aF-0.001
aF-0.001
aF-0.001
aF-0.001
aF-0.001
aF-0.001
aF-0.001
aF-0.001
aF-0.001
aF-0.001
aF-0.001
aF-0.001
aF-0.001
aF-0.001
aF-0.001
aF-0.001
aF-0.001
aF-0.001
aF-0.001
aF-0.001
aF-0.001
aF-0.001
aF-0.001
aF-0.001
aF-0.001
aF-0.001
aF-0.001
aF-0.001
aF-0.001
aF-0.001
aF-0.001
aF-0.001
aF-0.001
aF-0.001
aF-0.001
aF-0.001
aF-0.001
aF-0.001
aF-0.001
aF-0.001
aF-0.001
aF-0.001
aF-0.001
aF-0.001
aF-0.001
aF-0.001
aF-0.001
aF-0.001
aF-0.001
aF-0.001
aF-0.001
aF-0.001
aF-0.001
aF-0.001
aa(lp185
F-0.001
aF-0.001
aF-0.001
aF-0.001
aF-0.001
aF-0.001
aF-0.001
aF-0.001
aF-0.001
aF-0.001
aF-0.001
aF-0.001
aF-0.001
aF-0.001
aF-0.001
aF-0.001
aF-0.001
aF-0.001
aF-0.001
aF-0.001
aF-0.001
aF-0.001
aF-0.001
aF-0.001
aF-0.001
aF-0.001
aF-0.001
aF-0.001
aF-0.001
aF-0.001
aF-0.001
aF-0.001
aF-0.001
aF-0.001
aF-0.001
aF-0.001
aF-0.001
aF-0.001
aF-0.001
aF-0.001
aF-0.001
aF-0.001
aF-0.001
aF-0.001
aF-0.001
aF-0.001
aF-0.001
aF-0.001
aF-0.001
aF-0.001
aF-0.001
aF-0.001
aF-0.001
aF-0.001
aF-0.001
aF-0.001
aF-0.001
aF-0.001
aF-0.001
aF-0.001
aa(lp186
F-0.001
aF-0.001
aF-0.001
aF-0.001
aF-0.001
aF-0.001
aF-0.001
aF-0.001
aF-0.001
aF-0.001
aF-0.001
aF-0.001
aF-0.001
aF-0.001
aF-0.001
aF-0.001
aF-0.001
aF-0.001
aF-0.001
aF-0.001
aF-0.001
aF-0.001
aF-0.001
aF-0.001
aF-0.001
aF-0.001
aF-0.001
aF-0.001
aF-0.001
aF-0.001
aF-0.001
aF-0.001
aF-0.001
aF-0.001
aF-0.001
aF-0.001
aF-0.001
aF-0.001
aF-0.001
aF-0.001
aF-0.001
aF-0.001
aF-0.001
aF-0.001
aF-0.001
aF-0.001
aF-0.001
aF-0.001
aF-0.001
aF-0.001
aF-0.001
aF-0.001
aF-0.001
aF-0.001
aF-0.001
aF-0.001
aF-0.001
aF-0.001
aF-0.001
aa(lp187
F-0.001
aF-0.001
aF-0.001
aF-0.001
aF-0.001
aF-0.001
aF-0.001
aF-0.001
aF-0.001
aF-0.001
aF-0.001
aF-0.001
aF-0.001
aF-0.001
aF-0.001
aF-0.001
aF-0.001
aF-0.001
aF-0.001
aF-0.001
aF-0.001
aF-0.001
aF-0.001
aF-0.001
aF-0.001
aF-0.001
aF-0.001
aF-0.001
aF-0.001
aF-0.001
aF-0.001
aF-0.001
aF-0.001
aF-0.001
aF-0.001
aF-0.001
aF-0.001
aF-0.001
aF-0.001
aF-0.001
aF-0.001
aF-0.001
aF-0.001
aF-0.001
aF-0.001
aF-0.001
aF-0.001
aF-0.001
aF-0.001
aF-0.001
aF-0.001
aF-0.001
aF-0.001
aF-0.001
aF-0.001
aa(lp188
F-0.001
aF-0.001
aF-0.001
aF-0.001
aF-0.001
aF-0.001
aF-0.001
aF-0.001
aF-0.001
aF-0.001
aF-0.001
aF-0.001
aF-0.001
aF-0.001
aF-0.001
aF-0.001
aF-0.001
aF-0.001
aF-0.001
aF-0.001
aF-0.001
aF-0.001
aF-0.001
aF-0.001
aF-0.001
aF-0.001
aF-0.001
aF-0.001
aF-0.001
aF-0.001
aF-0.001
aF-0.001
aF-0.001
aF-0.001
aF-0.001
aF-0.001
aF-0.001
aF-0.001
aF-0.001
aF-0.001
aF-0.001
aF-0.001
aF-0.001
aF-0.001
aa(lp189
F-0.001
aF-0.001
aF-0.001
aF-0.001
aF-0.001
aF-0.001
aF-0.001
aF-0.001
aF-0.001
aF-0.001
aF-0.001
aF-0.001
aF-0.001
aF-0.001
aF-0.001
aF-0.001
aF-0.001
aF-0.001
aF-0.001
aF-0.001
aF-0.001
aF-0.001
aF-0.001
aF-0.001
aF-0.001
aF-0.001
aF-0.001
aF-0.001
aF-0.001
aF-0.001
aF-0.001
aF-0.001
aF-0.001
aF-0.001
aF-0.001
aF-0.001
aF-0.001
aF-0.001
aF-0.001
aF-0.001
aF-0.001
aF-0.001
aF-0.001
aF-0.001
aF-0.001
aF-0.001
aF-0.001
aF-0.001
aF-0.001
aF-0.001
aF-0.001
aF-0.001
aF-0.001
aF-0.001
aa(lp190
F-0.001
aF-0.001
aF-0.001
aF-0.001
aF-0.001
aF-0.001
aF-0.001
aF-0.001
aF-0.001
aF-0.001
aF-0.001
aF-0.001
aF-0.001
aF-0.001
aF-0.001
aF-0.001
aF-0.001
aF-0.001
aF-0.001
aF-0.001
aF-0.001
aF-0.001
aF-0.001
aF-0.001
aF-0.001
aF-0.001
aF-0.001
aF-0.001
aF-0.001
aF-0.001
aF-0.001
aF-0.001
aF-0.001
aF-0.001
aF-0.001
aF-0.001
aF-0.001
aF-0.001
aF-0.001
aF-0.001
aF-0.001
aF-0.001
aF-0.001
aF-0.001
aF-0.001
aF-0.001
aF-0.001
aF-0.001
aF-0.001
aF-0.001
aF-0.001
aF-0.001
aF-0.001
aF-0.001
aF-0.001
aF-0.001
aF-0.001
aF-0.001
aF-0.001
aF-0.001
aF-0.001
aF-0.001
aF-0.001
aF-0.001
aF-0.001
aa(lp191
F-0.001
aF-0.001
aF-0.001
aF-0.001
aF-0.001
aF-0.001
aF-0.001
aF-0.001
aF-0.001
aF-0.001
aF-0.001
aF-0.001
aF-0.001
aF-0.001
aF-0.001
aF-0.001
aF-0.001
aF-0.001
aF-0.001
aF-0.001
aF-0.001
aF-0.001
aF-0.001
aF-0.001
aF-0.001
aF-0.001
aF-0.001
aF-0.001
aF-0.001
aF-0.001
aF-0.001
aF-0.001
aF-0.001
aF-0.001
aF-0.001
aF-0.001
aF-0.001
aF-0.001
aF-0.001
aF-0.001
aF-0.001
aF-0.001
aF-0.001
aF-0.001
aF-0.001
aF-0.001
aF-0.001
aF-0.001
aF-0.001
aF-0.001
aa(lp192
F-0.001
aF-0.001
aF-0.001
aF-0.001
aF-0.001
aF-0.001
aF-0.001
aF-0.001
aF-0.001
aF-0.001
aF-0.001
aF-0.001
aF-0.001
aF-0.001
aF-0.001
aF-0.001
aF-0.001
aF-0.001
aF-0.001
aF-0.001
aF-0.001
aF-0.001
aF-0.001
aF-0.001
aF-0.001
aF-0.001
aF-0.001
aF-0.001
aF-0.001
aF-0.001
aF-0.001
aF-0.001
aF-0.001
aF-0.001
aF-0.001
aF-0.001
aF-0.001
aF-0.001
aF-0.001
aF-0.001
aF-0.001
aF-0.001
aF-0.001
aF-0.001
aF-0.001
aF-0.001
aF-0.001
aF-0.001
aF-0.001
aF-0.001
aF-0.001
aF-0.001
aF-0.001
aF-0.001
aF-0.001
aF-0.001
aF-0.001
aF-0.001
aF-0.001
aF-0.001
aF-0.001
aa(lp193
F-0.001
aF-0.001
aF-0.001
aF-0.001
aF-0.001
aF-0.001
aF-0.001
aF-0.001
aF-0.001
aF-0.001
aF-0.001
aF-0.001
aF-0.001
aF-0.001
aF-0.001
aF-0.001
aF-0.001
aF-0.001
aF-0.001
aF-0.001
aF-0.001
aF-0.001
aF-0.001
aF-0.001
aF-0.001
aF-0.001
aF-0.001
aF-0.001
aF-0.001
aF-0.001
aF-0.001
aF-0.001
aF-0.001
aF-0.001
aF-0.001
aF-0.001
aF-0.001
aF-0.001
aF-0.001
aF-0.001
aF-0.001
aF-0.001
aF-0.001
aF-0.001
aF-0.001
aF-0.001
aF-0.001
aF-0.001
aF-0.001
aF-0.001
aF-0.001
aF-0.001
aF-0.001
aF-0.001
aF-0.001
aF-0.001
aF-0.001
aF-0.001
aF-0.001
aF-0.001
aF-0.001
aF-0.001
aF-0.001
aF-0.001
aa(lp194
F-0.001
aF-0.001
aF-0.001
aF-0.001
aF-0.001
aF-0.001
aF-0.001
aF-0.001
aF-0.001
aF-0.001
aF-0.001
aF-0.001
aF-0.001
aF-0.001
aF-0.001
aF-0.001
aF-0.001
aF-0.001
aF-0.001
aF-0.001
aF-0.001
aF-0.001
aF-0.001
aF-0.001
aF-0.001
aF-0.001
aF-0.001
aF-0.001
aF-0.001
aF-0.001
aF-0.001
aF-0.001
aF-0.001
aF-0.001
aF-0.001
aF-0.001
aF-0.001
aF-0.001
aF-0.001
aF-0.001
aF-0.001
aF-0.001
aF-0.001
aF-0.001
aF-0.001
aF-0.001
aF-0.001
aF-0.001
aF-0.001
aF-0.001
aF-0.001
aF-0.001
aF-0.001
aF-0.001
aF-0.001
aF-0.001
aF-0.001
aF-0.001
aF-0.001
aF-0.001
aF-0.001
aF-0.001
aF-0.001
aF-0.001
aF-0.001
aF-0.001
aF-0.001
aF-0.001
aF-0.001
aF-0.001
aF-0.001
aF-0.001
aF-0.001
aa(lp195
F-0.001
aF-0.001
aF-0.001
aF-0.001
aF-0.001
aF-0.001
aF-0.001
aF-0.001
aF-0.001
aF-0.001
aF-0.001
aF-0.001
aF-0.001
aF-0.001
aF-0.001
aF-0.001
aF-0.001
aF-0.001
aF-0.001
aF-0.001
aF-0.001
aF-0.001
aF-0.001
aF-0.001
aF-0.001
aF-0.001
aF-0.001
aF-0.001
aF-0.001
aF-0.001
aF-0.001
aF-0.001
aF-0.001
aF-0.001
aF-0.001
aF-0.001
aF-0.001
aF-0.001
aF-0.001
aF-0.001
aF-0.001
aF-0.001
aF-0.001
aF-0.001
aF-0.001
aF-0.001
aF-0.001
aa(lp196
F-0.001
aF-0.001
aF-0.001
aF-0.001
aF-0.001
aF-0.001
aF-0.001
aF-0.001
aF-0.001
aF-0.001
aF-0.001
aF-0.001
aF-0.001
aF-0.001
aF-0.001
aF-0.001
aF-0.001
aF-0.001
aF-0.001
aF-0.001
aF-0.001
aF-0.001
aF-0.001
aF-0.001
aF-0.001
aF-0.001
aF-0.001
aF-0.001
aF-0.001
aF-0.001
aF-0.001
aF-0.001
aF-0.001
aF-0.001
aF-0.001
aF-0.001
aF-0.001
aF-0.001
aF-0.001
aF-0.001
aF-0.001
aF-0.001
aF-0.001
aF-0.001
aF-0.001
aF-0.001
aF-0.001
aF-0.001
aF-0.001
aF-0.001
aF-0.001
aF-0.001
aF-0.001
aa(lp197
F-0.001
aF-0.001
aF-0.001
aF-0.001
aF-0.001
aF-0.001
aF-0.001
aF-0.001
aF-0.001
aF-0.001
aF-0.001
aF-0.001
aF-0.001
aF-0.001
aF-0.001
aF-0.001
aF-0.001
aF-0.001
aF-0.001
aF-0.001
aF-0.001
aF-0.001
aF-0.001
aF-0.001
aF-0.001
aF-0.001
aF-0.001
aF-0.001
aF-0.001
aF-0.001
aF-0.001
aF-0.001
aF-0.001
aF-0.001
aF-0.001
aF-0.001
aF-0.001
aF-0.001
aF-0.001
aF-0.001
aF-0.001
aF-0.001
aF-0.001
aF-0.001
aF-0.001
aF-0.001
aF-0.001
aF-0.001
aF-0.001
aF-0.001
aF-0.001
aF-0.001
aF-0.001
aF-0.001
aF-0.001
aF-0.001
aF-0.001
aF-0.001
aF-0.001
aF-0.001
aF-0.001
aF-0.001
aF-0.001
aF-0.001
aF-0.001
aF-0.001
aa(lp198
F-0.001
aF-0.001
aF-0.001
aF-0.001
aF-0.001
aF-0.001
aF-0.001
aF-0.001
aF-0.001
aF-0.001
aF-0.001
aF-0.001
aF-0.001
aF-0.001
aF-0.001
aF-0.001
aF-0.001
aF-0.001
aF-0.001
aF-0.001
aF-0.001
aF-0.001
aF-0.001
aF-0.001
aF-0.001
aF-0.001
aF-0.001
aF-0.001
aF-0.001
aF-0.001
aF-0.001
aF-0.001
aF-0.001
aF-0.001
aF-0.001
aF-0.001
aF-0.001
aF-0.001
aF-0.001
aF-0.001
aF-0.001
aF-0.001
aF-0.001
aF-0.001
aF-0.001
aF-0.001
aF-0.001
aF-0.001
aF-0.001
aF-0.001
aF-0.001
aF-0.001
aF-0.001
aF-0.001
aF-0.001
aF-0.001
aF-0.001
aF-0.001
aF-0.001
aF-0.001
aF-0.001
aF-0.001
aF-0.001
aF-0.001
aF-0.001
aatp199
bsS'init_kwds'
p200
(dp201
sb.